(lp0
(lp1
S'EG11277'
p2
aS'EG10998'
p3
aa(lp4
g2
ag3
aS'EG10999'
p5
aa(lp6
g2
aa(lp7
g3
ag5
aa(lp8
g3
aa(lp9
g5
aS'EG11000'
p10
aa(lp11
g5
aa(lp12
g5
ag10
aS'G6081'
p13
aa(lp14
g10
aa(lp15
g13
aa(lp16
g13
aS'EG10011'
p17
aa(lp18
g17
aS'EG11555'
p19
aa(lp20
g17
aa(lp21
g19
aa(lp22
S'EG11556'
p23
aS'EG11511'
p24
aa(lp25
g23
aa(lp26
g23
ag24
aS'EG11512'
p27
aa(lp28
g24
ag27
aa(lp29
g24
aa(lp30
S'EG10241'
p31
aS'EG10240'
p32
aS'G6083'
p33
aa(lp34
g31
ag32
aa(lp35
g31
aa(lp36
g32
ag33
aa(lp37
g32
ag33
aS'EG10373'
p38
aS'G0-9563'
p39
aa(lp40
g32
aa(lp41
S'EG10652'
p42
aa(lp43
g42
aS'EG11078'
p44
aa(lp45
g44
aa(lp46
S'G6086'
p47
aS'EG10919'
p48
aa(lp49
g48
aa(lp50
S'G6087'
p51
aS'EG11079'
p52
aa(lp53
g51
aa(lp54
g52
aa(lp55
g52
aS'EG10492'
p56
aa(lp57
g56
aa(lp58
g56
aS'EG10548'
p59
aa(lp60
g56
ag59
aS'EG11080'
p61
aa(lp62
g59
ag61
aS'EG11081'
p63
aa(lp64
g59
ag61
aa(lp65
g59
aa(lp66
g61
ag63
aa(lp67
g61
ag63
aS'EG11082'
p68
aa(lp69
g61
aa(lp70
g68
aa(lp71
g68
aS'EG10206'
p72
aa(lp73
g72
aa(lp74
S'EG10134'
p75
aS'EG10135'
p76
aa(lp77
g75
aa(lp78
g76
aa(lp79
S'EG11558'
p80
aS'EG11559'
p81
aa(lp82
g81
aa(lp83
S'EG11562'
p84
aa(lp85
g84
aS'EG11563'
p86
aa(lp87
g84
ag86
aS'EG11564'
p88
aS'EG11565'
p89
aa(lp90
g84
ag86
ag88
aa(lp91
g86
ag88
ag89
aa(lp92
g86
aa(lp93
g88
ag89
aS'EG11566'
p94
aa(lp95
S'EG11568'
p96
aa(lp97
g96
aS'EG10521'
p98
aS'EG10326'
p99
aa(lp100
g96
ag98
aa(lp101
g98
aa(lp102
g99
aa(lp103
S'EG10048'
p104
aS'EG10047'
p105
aS'EG10523'
p106
aa(lp107
g104
ag105
aa(lp108
g105
ag106
aS'EG10691'
p109
aS'EG10985'
p110
aa(lp111
g105
aa(lp112
g105
ag106
aa(lp113
g106
aa(lp114
g106
ag109
ag110
aa(lp115
g109
aa(lp116
g109
ag110
aa(lp117
g110
aS'EG11569'
p118
aa(lp119
g110
aa(lp120
g118
aa(lp121
S'EG11570'
p122
aa(lp123
g122
aS'EG12610'
p124
aa(lp125
g124
aa(lp126
S'EG12609'
p127
aS'EG11083'
p128
aa(lp129
g127
aa(lp130
g128
aa(lp131
S'EG10747'
p132
aa(lp133
S'EG10052'
p134
aS'EG10053'
p135
aa(lp136
g134
aa(lp137
g135
aa(lp138
S'EG10054'
p139
aa(lp140
g139
aS'EG11571'
p141
aa(lp142
g141
aa(lp143
S'EG11572'
p144
aS'EG11573'
p145
aa(lp146
g144
ag145
aS'EG11574'
p147
aa(lp148
g145
aa(lp149
g145
ag147
aa(lp150
g147
aa(lp151
g147
aS'EG12094'
p152
aa(lp153
g152
aa(lp154
S'EG11754'
p155
aa(lp156
S'EG11575'
p157
aa(lp158
g157
aS'EG11576'
p159
aS'EG11577'
p160
aS'EG11226'
p161
aS'EG11280'
p162
aa(lp163
g157
ag159
ag160
aa(lp164
g157
ag159
aa(lp165
g159
aa(lp166
g159
ag160
aa(lp167
g160
aa(lp168
g160
ag161
aa(lp169
g160
ag161
ag162
aa(lp170
g161
ag162
aa(lp171
g161
aa(lp172
g162
aa(lp173
S'EG10531'
p174
aa(lp175
S'EG10500'
p176
aS'EG10499'
p177
aa(lp178
g176
ag177
aS'EG10338'
p179
aa(lp180
g176
aa(lp181
g177
aa(lp182
g177
ag179
aa(lp183
g179
aS'EG11084'
p184
aS'EG11085'
p185
aa(lp186
g179
aa(lp187
g179
ag184
ag185
aS'EG11086'
p188
aa(lp189
g179
ag184
aa(lp190
g184
aa(lp191
g184
ag185
ag188
aa(lp192
g184
ag185
ag188
aS'EG10341'
p193
aa(lp194
g185
aa(lp195
g188
ag193
aa(lp196
g188
aa(lp197
S'EG10621'
p198
aa(lp199
g198
aS'EG10622'
p200
aa(lp201
g200
aa(lp202
g200
aS'EG10604'
p203
aa(lp204
g203
aS'EG10620'
p205
aa(lp206
g203
aa(lp207
g205
aa(lp208
g205
aS'EG10344'
p209
aa(lp210
g209
aS'EG10623'
p211
aa(lp212
g209
aa(lp213
g211
aa(lp214
S'EG10619'
p215
aa(lp216
g215
aS'EG10214'
p217
aa(lp218
g215
ag217
aS'EG10342'
p219
aa(lp220
g217
aa(lp221
g217
ag219
aa(lp222
g219
aS'EG10339'
p223
aS'EG10347'
p224
aa(lp225
g219
ag223
aa(lp226
g219
aa(lp227
g223
ag224
aa(lp228
g223
aa(lp229
g224
aS'EG10265'
p230
aS'EG11087'
p231
aa(lp232
g224
aa(lp233
g224
ag230
aa(lp234
g230
ag231
aa(lp235
g230
aa(lp236
g231
aa(lp237
g231
aS'EG10936'
p238
aa(lp239
g238
aa(lp240
S'EG12314'
p241
aS'EG12313'
p242
aa(lp243
g241
aa(lp244
g241
ag242
aS'EG12312'
p245
aa(lp246
g242
aa(lp247
g242
ag245
aa(lp248
g245
aa(lp249
S'EG10422'
p250
aa(lp251
S'EG11798'
p252
aa(lp253
S'EG12106'
p254
aS'EG12107'
p255
aa(lp256
g255
aa(lp257
S'EG11546'
p258
aa(lp259
S'EG10041'
p260
aS'EG10042'
p261
aa(lp262
g260
aa(lp263
g261
aa(lp264
S'EG10084'
p265
aa(lp266
S'EG11088'
p267
aa(lp268
S'EG10024'
p269
aa(lp270
S'EG10025'
p271
aS'EG10543'
p272
aa(lp273
g271
aa(lp274
g272
aa(lp275
S'EG12316'
p276
aS'EG12605'
p277
aa(lp278
g276
aa(lp279
g277
aS'EG10962'
p280
aa(lp281
g277
aa(lp282
g277
ag280
aS'EG10963'
p283
aa(lp284
g280
ag283
aa(lp285
g280
aa(lp286
g283
aa(lp287
S'EG11089'
p288
aa(lp289
g288
aS'EG12318'
p290
aa(lp291
g290
aa(lp292
S'EG10369'
p293
aa(lp294
S'EG20098'
p295
aS'EG12319'
p296
aS'EG12320'
p297
aS'EG12321'
p298
aa(lp299
g295
ag296
aa(lp300
g295
aa(lp301
g295
ag296
ag297
aa(lp302
g295
ag296
ag297
ag298
aS'EG12322'
p303
aa(lp304
g296
ag297
ag298
aa(lp305
g296
aa(lp306
g297
aa(lp307
g297
ag298
aa(lp308
g297
ag298
ag303
aa(lp309
g298
aa(lp310
S'EG11747'
p311
aa(lp312
S'EG11746'
p313
aa(lp314
g313
aS'EG11675'
p315
aa(lp316
g315
aa(lp317
S'EG12326'
p318
aS'EG12327'
p319
aa(lp320
g319
aa(lp321
S'EG11374'
p322
aS'EG10690'
p323
aa(lp324
g323
aa(lp325
g323
aS'EG11362'
p326
aS'EG10230'
p327
aa(lp328
g326
ag327
aa(lp329
g327
aS'EG10949'
p330
aS'EG12330'
p331
aa(lp332
g327
ag330
aa(lp333
g327
aa(lp334
g331
aa(lp335
S'EG12329'
p336
aa(lp337
S'EG10605'
p338
aa(lp339
S'EG10302'
p340
aa(lp341
g340
aS'EG10304'
p342
aS'EG10305'
p343
aa(lp344
g340
ag342
aa(lp345
g342
ag343
aa(lp346
g342
ag343
aS'EG10303'
p347
aa(lp348
g342
aa(lp349
g343
aa(lp350
g343
ag347
aa(lp351
S'EG10432'
p352
aa(lp353
S'EG12331'
p354
aa(lp355
g354
aS'EG12332'
p356
aa(lp357
g356
aa(lp358
S'EG12333'
p359
aS'EG12334'
p360
aS'EG11090'
p361
aa(lp362
g359
aa(lp363
g360
ag361
aa(lp364
g361
aa(lp365
S'EG10225'
p366
aS'EG10463'
p367
aa(lp368
g366
aa(lp369
g367
aa(lp370
S'EG12335'
p371
aa(lp372
S'EG12336'
p373
aS'EG12337'
p374
aS'EG10207'
p375
aa(lp376
g373
aa(lp377
g374
ag375
aa(lp378
g375
aS'EG11411'
p379
aS'EG10570'
p380
aa(lp381
g375
ag379
aa(lp382
g375
aa(lp383
g379
aa(lp384
g379
ag380
aa(lp385
g380
aa(lp386
S'G0-8895'
p387
aS'EG10901'
p388
aS'EG11033'
p389
aS'EG11539'
p390
aa(lp391
g387
ag388
ag389
ag390
aS'EG10335'
p392
aa(lp393
g387
ag388
ag389
aa(lp394
g387
ag388
aa(lp395
g387
aa(lp396
g388
ag389
ag390
aa(lp397
g388
ag389
aa(lp398
g388
aa(lp399
g388
ag389
ag390
ag392
aa(lp400
g389
aa(lp401
g389
ag390
ag392
aS'EG12715'
p402
aa(lp403
g389
ag390
ag392
aa(lp404
g389
ag390
aa(lp405
g390
ag392
aa(lp406
g390
ag392
ag402
aa(lp407
g390
aa(lp408
g392
ag402
aS'G6092'
p409
aS'EG10139'
p410
aa(lp411
g392
ag402
aa(lp412
g392
ag402
ag409
aa(lp413
g392
aa(lp414
g402
ag409
ag410
aa(lp415
g409
aa(lp416
g409
ag410
aa(lp417
g409
ag410
aS'EG12436'
p418
aa(lp419
g410
aa(lp420
g410
ag418
aa(lp421
g418
aa(lp422
S'G6093'
p423
aa(lp424
g423
aS'EG10455'
p425
aa(lp426
g425
aS'EG10316'
p427
aS'EG11284'
p428
aa(lp429
g425
ag427
ag428
aS'EG10545'
p430
aa(lp431
g425
ag427
aa(lp432
g425
ag427
ag428
ag430
aS'EG10546'
p433
aa(lp434
g425
aa(lp435
g427
ag428
ag430
aa(lp436
g428
ag430
aa(lp437
g428
ag430
ag433
aS'EG10861'
p438
aa(lp439
g428
ag430
ag433
aa(lp440
g428
aa(lp441
g430
aa(lp442
g430
ag433
aa(lp443
g430
ag433
ag438
aa(lp444
g433
aa(lp445
g433
ag438
aa(lp446
g438
aa(lp447
S'EG11647'
p448
aa(lp449
S'G6094'
p450
aa(lp451
S'G6095'
p452
aS'G6096'
p453
aa(lp454
g452
aa(lp455
g453
aa(lp456
S'G6097'
p457
aS'G372'
p458
aa(lp459
S'G6098'
p460
aa(lp461
g460
aS'EG12354'
p462
aa(lp463
g460
ag462
aS'EG12137'
p464
aa(lp465
g464
aa(lp466
S'EG12138'
p467
aS'EG10770'
p468
aa(lp469
g468
aa(lp470
g468
aS'EG11503'
p471
aS'EG11502'
p472
aa(lp473
g471
ag472
aa(lp474
g471
ag472
aS'EG11504'
p475
aS'EG11737'
p476
aa(lp477
g472
aa(lp478
g472
ag475
ag476
aS'EG11621'
p479
aa(lp480
g475
ag476
aa(lp481
g475
ag476
ag479
aa(lp482
g475
aa(lp483
g476
aa(lp484
g476
ag479
aa(lp485
g479
aa(lp486
S'EG11736'
p487
aS'EG30090'
p488
aa(lp489
g487
aa(lp490
g488
aS'EG30045'
p491
aa(lp492
g488
aa(lp493
g488
ag491
aS'EG30010'
p494
aa(lp495
g491
ag494
aa(lp496
g491
aa(lp497
S'EG30083'
p498
aa(lp499
S'EG30076'
p500
aa(lp501
g500
aS'EG30024'
p502
aa(lp503
S'EG11648'
p504
aa(lp505
S'EG11649'
p506
aa(lp507
S'EG11650'
p508
aa(lp509
S'EG10246'
p510
aa(lp511
S'G6099'
p512
aS'G6100'
p513
aS'EG10860'
p514
aa(lp515
g512
aa(lp516
g513
aa(lp517
g514
aa(lp518
S'EG10243'
p519
aS'EG30025'
p520
aa(lp521
g519
aa(lp522
S'G6101'
p523
aa(lp524
S'G0-10583'
p525
aa(lp526
S'G6103'
p527
aa(lp528
S'G6104'
p529
aa(lp530
S'G6106'
p531
aS'G6107'
p532
aa(lp533
g531
aa(lp534
g532
aa(lp535
S'G6108'
p536
aS'G6109'
p537
aS'G6110'
p538
aa(lp539
g536
aa(lp540
g537
ag538
aa(lp541
g538
aa(lp542
S'G6111'
p543
aa(lp544
S'G6112'
p545
aa(lp546
S'G6115'
p547
aa(lp548
g547
aS'G6116'
p549
aa(lp550
g549
aa(lp551
g549
aS'G6117'
p552
aS'G6118'
p553
aa(lp554
g549
ag552
aa(lp555
S'EG11496'
p556
aa(lp557
S'EG10695'
p558
aa(lp559
S'EG10414'
p560
aS'EG11091'
p561
aa(lp562
g560
aa(lp563
g561
aS'EG11092'
p564
aa(lp565
g561
aa(lp566
S'EG10768'
p567
aS'EG10767'
p568
aS'EG30104'
p569
aS''
p570
aa(lp571
g567
ag568
ag569
aa(lp572
g567
aa(lp573
g567
ag568
aa(lp574
g568
aa(lp575
g568
ag569
aa(lp576
g569
aa(lp577
g569
ag570
aS'G6120'
p578
aa(lp579
g570
aa(lp580
S'G6122'
p581
aS'G6123'
p582
aa(lp583
S'G6124'
p584
aa(lp585
S'G6125'
p586
aa(lp587
S'G6128'
p588
aa(lp589
S'G6129'
p590
aa(lp591
S'G6130'
p592
aS'G6131'
p593
aS'G0-10696'
p594
aa(lp595
g594
aa(lp596
g594
aS'G6133'
p597
aa(lp598
S'G6135'
p599
aa(lp600
g599
aS'G6136'
p601
aa(lp602
g601
aa(lp603
g601
aS'EG12340'
p604
aa(lp605
g604
aS'G6137'
p606
aa(lp607
g606
aS'G6138'
p608
aS'G6139'
p609
aa(lp610
g608
ag609
aS'G0-16679'
p611
aS'G0-10433'
p612
aa(lp613
g608
ag609
aa(lp614
g609
ag611
ag612
aS'EG12339'
p615
aa(lp616
g609
ag611
ag612
aa(lp617
g611
ag612
aa(lp618
g611
ag612
ag615
aa(lp619
g612
aa(lp620
g615
aa(lp621
S'G6140'
p622
aa(lp623
S'G6142'
p624
aa(lp625
g624
aS'G6143'
p626
aS'G6144'
p627
aa(lp628
g624
ag626
aa(lp629
g626
ag627
aa(lp630
g626
aa(lp631
g627
aS'EG10067'
p632
aa(lp633
g627
aa(lp634
g632
aa(lp635
S'G6145'
p636
aa(lp637
S'G6151'
p638
aS'G6152'
p639
aa(lp640
g638
aa(lp641
g638
ag639
ag570
aa(lp642
g639
ag570
aa(lp643
g639
aa(lp644
S'G6153'
p645
aS'G6153'
p646
aS'G6154'
p647
aa(lp648
S'G6156'
p649
aS'G6157'
p650
aa(lp651
S'G6158'
p652
aa(lp653
g652
aS'G6159'
p654
aa(lp655
S'G6160'
p656
aa(lp657
S'G6161'
p658
aa(lp659
S'G6163'
p660
aS'G6164'
p661
aa(lp662
g661
aS'G6165'
p663
aa(lp664
S'G6168'
p665
aS'G6169'
p666
aa(lp667
g665
aa(lp668
S'G6170'
p669
aa(lp670
S'G6175'
p671
aS'G6176'
p672
aa(lp673
g671
aa(lp674
g672
aa(lp675
g672
aS'G6177'
p676
aS'G6178'
p677
aa(lp678
g672
ag676
aa(lp679
g676
aa(lp680
g676
ag677
aa(lp681
g677
aa(lp682
S'EG10109'
p683
aS'EG10110'
p684
aS'EG10111'
p685
aa(lp686
g683
aa(lp687
g684
ag685
aa(lp688
g684
aa(lp689
g685
aa(lp690
S'EG10112'
p691
aa(lp692
S'EG11236'
p693
aa(lp694
S'G6181'
p695
aa(lp696
S'G6183'
p697
aa(lp698
S'G6186'
p699
aS'G6188'
p700
aa(lp701
g699
aa(lp702
S'G6189'
p703
aa(lp704
S'G6190'
p705
aa(lp706
S'G6194'
p707
aa(lp708
S'G6198'
p709
aa(lp710
S'G6199'
p711
aa(lp712
S'EG11327'
p713
aa(lp714
g713
aS'EG11326'
p715
aa(lp716
g715
aa(lp717
S'EG11421'
p718
aS'EG10176'
p719
aa(lp720
g718
aa(lp721
g719
aS'EG10175'
p722
aa(lp723
S'EG10524'
p724
aS'EG10526'
p725
aa(lp726
g725
aa(lp727
g725
aS'EG10527'
p728
aa(lp729
g728
aa(lp730
S'EG10525'
p731
aa(lp732
g731
aS'G6201'
p733
aa(lp734
g733
aa(lp735
S'M010'
p736
aa(lp737
g736
aS'M011'
p738
aa(lp739
g736
ag738
aS'M012'
p740
aa(lp741
g740
aS'M013'
p742
aS'M014'
p743
aa(lp744
g740
ag742
ag743
aS'G6205'
p745
aa(lp746
g742
ag743
aa(lp747
g745
aa(lp748
S'G6207'
p749
aa(lp750
S'G6208'
p751
aS'EG50010'
p752
aS'G6209'
p753
aa(lp754
g752
ag753
aa(lp755
g753
aa(lp756
S'G6212'
p757
aa(lp758
S'G6217'
p759
aS'G6218'
p760
aa(lp761
g759
aa(lp762
g759
ag760
aS'G6219'
p763
aS'EG12423'
p764
aa(lp765
g759
ag760
ag763
aa(lp766
S'EG10428'
p767
aa(lp768
S'EG12867'
p769
aa(lp770
S'EG10928'
p771
aa(lp772
g771
aS'G6227'
p773
aa(lp774
g773
aa(lp775
S'G6228'
p776
aa(lp777
S'G6229'
p778
aa(lp779
S'EG10213'
p780
aa(lp781
S'EG11256'
p782
aa(lp783
g782
aS'EG10727'
p784
aa(lp785
g784
aa(lp786
g784
aS'EG11401'
p787
aa(lp788
g787
aa(lp789
S'EG10769'
p790
aa(lp791
S'G6230'
p792
aS'EG10082'
p793
aS'EG11093'
p794
aS'EG10083'
p795
aS'EG12159'
p796
aS'G6231'
p797
aa(lp798
g792
aa(lp799
g792
ag793
aa(lp800
g792
ag793
ag794
aa(lp801
g792
ag793
ag794
ag795
ag796
aa(lp802
g792
ag793
ag794
ag795
aa(lp803
g793
ag794
aa(lp804
g793
ag794
ag795
aa(lp805
g793
aa(lp806
g794
aa(lp807
g795
aa(lp808
g796
ag797
aa(lp809
g796
aa(lp810
g797
aS'EG12158'
p811
aa(lp812
g797
aa(lp813
g811
aa(lp814
S'EG11288'
p815
aa(lp816
S'EG10060'
p817
aa(lp818
S'EG11094'
p819
aa(lp820
S'EG10728'
p821
aa(lp822
g821
aS'EG10733'
p823
aa(lp824
S'EG12168'
p825
aa(lp826
g825
aS'G6233'
p827
aa(lp828
g827
aa(lp829
S'EG10565'
p830
aS'EG11095'
p831
aa(lp832
g830
aa(lp833
g831
aa(lp834
S'EG10812'
p835
aS'EG10996'
p836
aa(lp837
g835
ag836
aS'EG11096'
p838
aa(lp839
g835
aa(lp840
g836
ag838
aa(lp841
g836
aa(lp842
g836
ag838
aS'EG10938'
p843
aa(lp844
g838
ag843
aa(lp845
g838
aa(lp846
g838
ag843
aS'EG10940'
p847
aa(lp848
g843
aa(lp849
g847
aS'EG11097'
p850
aa(lp851
g847
aa(lp852
g850
aa(lp853
g850
aS'EG11035'
p854
aa(lp855
g854
aa(lp856
S'EG11320'
p857
aS'EG11321'
p858
aS'EG11322'
p859
aa(lp860
g857
ag858
ag859
aS'EG10666'
p861
aa(lp862
g857
ag858
ag859
ag861
aS'G6234'
p863
aS'EG10704'
p864
aa(lp865
g857
aa(lp866
g857
ag858
aa(lp867
g857
ag858
ag859
ag861
ag863
aa(lp868
g858
ag859
ag861
aa(lp869
g858
ag859
aa(lp870
g859
ag861
aa(lp871
g859
aa(lp872
g859
ag861
ag863
aa(lp873
g861
aa(lp874
g861
ag863
ag864
aa(lp875
g861
ag863
aa(lp876
g864
aa(lp877
S'G6236'
p878
aa(lp879
S'G6237'
p880
aS'EG10508'
p881
aS'EG11098'
p882
aa(lp883
g880
aa(lp884
g881
aa(lp885
g881
ag882
aa(lp886
g882
aa(lp887
S'G6238'
p888
aa(lp889
g888
aS'G198'
p890
aa(lp891
g890
aa(lp892
g890
aS'G6239'
p893
aS'G6240'
p894
aa(lp895
g890
ag893
aa(lp896
g893
aa(lp897
g894
aS'G6241'
p898
aa(lp899
g894
aa(lp900
g898
aa(lp901
S'EG10182'
p902
aS'EG10181'
p903
aS'EG10180'
p904
aS'EG10179'
p905
aa(lp906
g902
ag903
aa(lp907
g902
aa(lp908
g902
ag903
ag904
aa(lp909
g903
ag904
ag905
aS'EG10178'
p910
aa(lp911
g903
aa(lp912
g903
ag904
aa(lp913
g903
ag904
ag905
aa(lp914
g904
ag905
ag910
aa(lp915
g904
ag905
aa(lp916
g904
aa(lp917
g905
ag910
aa(lp918
g905
aa(lp919
g910
aa(lp920
S'EG12183'
p921
aS'EG12182'
p922
aa(lp923
g922
aa(lp924
S'EG10125'
p925
aa(lp926
g925
aS'EG11003'
p927
aa(lp928
g927
aS'EG10158'
p929
aS'EG10159'
p930
aa(lp931
g927
ag929
aa(lp932
g927
aa(lp933
g929
aa(lp934
g929
ag930
aa(lp935
g930
aa(lp936
S'EG10542'
p937
aa(lp938
g937
aS'EG10467'
p939
aa(lp940
g939
aa(lp941
g939
aS'G6242'
p942
aa(lp943
g942
aS'G6243'
p944
aa(lp945
g942
ag944
aS'G6244'
p946
aa(lp947
g942
aa(lp948
g944
ag946
aa(lp949
g944
aa(lp950
g946
aa(lp951
S'G6245'
p952
aa(lp953
S'G6246'
p954
aa(lp955
S'G6247'
p956
aa(lp957
g956
aS'G6248'
p958
aa(lp959
S'EG10995'
p960
aa(lp961
S'G6250'
p962
aa(lp963
S'EG30027'
p964
aa(lp965
g964
aS'EG11099'
p966
aa(lp967
S'G6252'
p968
aS'G6253'
p969
aa(lp970
g969
aa(lp971
S'G58'
p972
aa(lp973
g972
aS'EG10439'
p974
aa(lp975
g974
aS'EG12429'
p976
aa(lp977
g974
aa(lp978
g976
aa(lp979
S'EG11704'
p980
aS'EG11703'
p981
aa(lp982
g981
aa(lp983
S'EG12116'
p984
aa(lp985
S'G6255'
p986
aa(lp987
S'EG12830'
p988
aS'EG10765'
p989
aa(lp990
S'EG12843'
p991
aa(lp992
g991
aS'EG10051'
p993
aa(lp994
g993
aa(lp995
g993
aS'EG10245'
p996
aa(lp997
g993
ag996
aS'EG11100'
p998
aa(lp999
g996
ag998
aS'EG10834'
p1000
aa(lp1001
g996
aa(lp1002
g996
ag998
aa(lp1003
g998
ag1000
aS'EG10461'
p1004
aa(lp1005
g998
aa(lp1006
g998
ag1000
aa(lp1007
g1004
aS'EG10032'
p1008
aa(lp1009
g1004
aa(lp1010
g1008
aa(lp1011
S'EG10431'
p1012
aa(lp1013
S'EG11101'
p1014
aa(lp1015
S'EG11102'
p1016
aa(lp1017
S'EG12623'
p1018
aa(lp1019
S'G6256'
p1020
aa(lp1021
S'EG11060'
p1022
aS'EG12454'
p1023
aa(lp1024
g1022
aa(lp1025
g1023
aa(lp1026
S'G0-9382'
p1027
aS'G6258'
p1028
aa(lp1029
g1028
aa(lp1030
S'G6259'
p1031
aa(lp1032
g1031
aS'G6260'
p1033
aa(lp1034
g1033
aa(lp1035
S'G6261'
p1036
aS'G6262'
p1037
aS'G6263'
p1038
aa(lp1039
g1036
aa(lp1040
g1037
ag1038
aa(lp1041
g1038
aS'G6264'
p1042
aS'G6265'
p1043
aa(lp1044
g1038
aa(lp1045
g1042
aa(lp1046
g1042
ag1043
aa(lp1047
g1043
aa(lp1048
S'G6266'
p1049
aa(lp1050
g1049
aS'G6267'
p1051
aa(lp1052
S'G6268'
p1053
aS'G6269'
p1054
aS'EG11542'
p1055
aa(lp1056
g1053
aa(lp1057
g1053
ag1054
aa(lp1058
g1054
ag1055
aa(lp1059
g1054
aa(lp1060
g1055
aa(lp1061
S'EG11657'
p1062
aa(lp1063
g1062
aS'G6270'
p1064
aa(lp1065
S'EG11769'
p1066
aa(lp1067
g1066
aS'G6271'
p1068
aS'G6272'
p1069
aa(lp1070
g1066
ag1068
aa(lp1071
g570
aa(lp1072
g570
aS'G6273'
p1073
aS'EG11768'
p1074
aa(lp1075
g1073
ag1074
aa(lp1076
g1074
aa(lp1077
S'G6275'
p1078
aa(lp1079
S'G6276'
p1080
aa(lp1081
g1080
aS'EG11583'
p1082
aS'G6277'
p1083
aa(lp1084
g1082
aa(lp1085
g1083
aS'G6278'
p1086
aa(lp1087
S'G6280'
p1088
aa(lp1089
S'G6281'
p1090
aa(lp1091
S'G6284'
p1092
aS'G6285'
p1093
aS'G6286'
p1094
aa(lp1095
g1092
aa(lp1096
S'G6288'
p1097
aa(lp1098
g1097
aS'G6289'
p1099
aS'EG12384'
p1100
aa(lp1101
S'EG10796'
p1102
aS'EG10793'
p1103
aS'EG12666'
p1104
aS'EG10758'
p1105
aa(lp1106
g1102
ag1103
aa(lp1107
g1102
aa(lp1108
g1103
aa(lp1109
g1103
ag1104
ag1105
aa(lp1110
g1104
ag1105
aa(lp1111
g1105
aa(lp1112
S'EG10196'
p1113
aa(lp1114
g1113
aS'EG12708'
p1115
aa(lp1116
g1115
aS'EG12879'
p1117
aa(lp1118
g1117
aa(lp1119
g1117
aS'EG10328'
p1120
aa(lp1121
g1120
aa(lp1122
S'EG30014'
p1123
aS'EG10507'
p1124
aa(lp1125
g1123
aa(lp1126
g1123
ag1124
ag570
aS'G6295'
p1127
aa(lp1128
g570
ag1127
aa(lp1129
g1127
aS'G0-10555'
p1130
aS'G6298'
p1131
aS'G6296'
p1132
aS'G6297'
p1133
aa(lp1134
g1132
ag1133
aS'EG10629'
p1135
aa(lp1136
g1133
ag1135
aa(lp1137
g1135
aa(lp1138
S'G6301'
p1139
aS'G6302'
p1140
aa(lp1141
g1139
aa(lp1142
g1140
aa(lp1143
S'G0-10435'
p1144
aS'G6307'
p1145
aS'EG10659'
p1146
aS'G6308'
p1147
aa(lp1148
g1146
ag1147
aa(lp1149
g1147
aa(lp1150
S'G0-10436'
p1151
aS'G6312'
p1152
aa(lp1153
g1152
aa(lp1154
S'G6314'
p1155
aa(lp1156
S'G0-10585'
p1157
aa(lp1158
S'G6316'
p1159
aa(lp1160
S'EG10050'
p1161
aa(lp1162
S'EG10673'
p1163
aa(lp1164
g570
aS'EG10268'
p1165
aa(lp1166
S'EG12448'
p1167
aS'EG11740'
p1168
aa(lp1169
g1167
aa(lp1170
g1168
aa(lp1171
S'EG11739'
p1172
aa(lp1173
S'G6318'
p1174
aS'G6319'
p1175
aa(lp1176
g1175
aa(lp1177
S'G6320'
p1178
aS'G6321'
p1179
aa(lp1180
g1178
aa(lp1181
g1179
aS'G6322'
p1182
aa(lp1183
S'EG10708'
p1184
aa(lp1185
S'G6323'
p1186
aa(lp1187
g1186
aS'EG50005'
p1188
aa(lp1189
g1188
aS'G6324'
p1190
aa(lp1191
g1188
aa(lp1192
g1190
aa(lp1193
S'G6325'
p1194
aa(lp1195
S'G6326'
p1196
aa(lp1197
S'G0-16677'
p1198
aS'G0-9582'
p1199
aa(lp1200
S'G6327'
p1201
aa(lp1202
S'EG10262'
p1203
aa(lp1204
g1203
aS'EG10293'
p1205
aa(lp1206
g1205
aa(lp1207
S'EG10299'
p1208
aS'G0-10437'
p1209
aa(lp1210
g1208
aa(lp1211
g1209
aa(lp1212
g1209
aS'EG10264'
p1213
aa(lp1214
S'EG10295'
p1215
aa(lp1216
g1215
aS'EG10298'
p1217
aS'EG10296'
p1218
aa(lp1219
g1217
ag1218
aa(lp1220
g1218
aa(lp1221
S'EG11104'
p1222
aa(lp1223
S'EG10294'
p1224
aa(lp1225
S'EG10261'
p1226
aS'EG10263'
p1227
aS'EG10260'
p1228
aS'EG10259'
p1229
aa(lp1230
g1226
aa(lp1231
g1226
ag1227
ag1228
aa(lp1232
g1226
ag1227
aa(lp1233
g1227
ag1228
ag1229
aS'EG11105'
p1234
aa(lp1235
g1227
ag1228
aa(lp1236
g1227
ag1228
ag1229
aa(lp1237
g1227
aa(lp1238
g1228
aa(lp1239
g1228
ag1229
aa(lp1240
g1228
ag1229
ag1234
aa(lp1241
g1229
aa(lp1242
g1229
ag1234
aa(lp1243
g1234
aa(lp1244
S'EG10167'
p1245
aS'G0-10438'
p1246
aa(lp1247
g1245
aa(lp1248
g1246
aa(lp1249
g1246
aS'EG12692'
p1250
aa(lp1251
g1250
aa(lp1252
S'G6329'
p1253
aa(lp1254
S'G6330'
p1255
aS'G6331'
p1256
aa(lp1257
g1255
aa(lp1258
S'G6333'
p1259
aa(lp1260
S'EG11384'
p1261
aa(lp1262
S'EG11385'
p1263
aa(lp1264
S'G6334'
p1265
aa(lp1266
S'G6335'
p1267
aa(lp1268
g1267
aS'G6337'
p1269
aa(lp1270
g1269
aS'EG10856'
p1271
aa(lp1272
g1269
aa(lp1273
g1271
aa(lp1274
S'G6343'
p1275
aa(lp1276
S'G6346'
p1277
aa(lp1278
S'G6347'
p1279
aa(lp1280
S'EG12180'
p1281
aa(lp1282
S'EG12179'
p1283
aa(lp1284
S'EG12209'
p1285
aa(lp1286
S'EG12208'
p1287
aS'EG11305'
p1288
aa(lp1289
g1287
aa(lp1290
g1288
aa(lp1291
g1288
aS'EG11306'
p1292
aa(lp1293
g1292
aa(lp1294
S'EG11594'
p1295
aa(lp1296
S'EG11591'
p1297
aa(lp1298
g1297
aS'EG11592'
p1299
aa(lp1300
g1297
ag1299
aS'EG10201'
p1301
aa(lp1302
g1299
ag1301
aa(lp1303
g1299
aa(lp1304
g1299
ag1301
aS'EG10854'
p1305
aa(lp1306
g1301
ag1305
aa(lp1307
g1301
aa(lp1308
g1305
aS'EG10607'
p1309
aa(lp1310
g1305
aa(lp1311
g1309
aS'EG10606'
p1312
aS'EG11254'
p1313
aS'EG11255'
p1314
aa(lp1315
g1309
ag1312
aa(lp1316
g1309
aa(lp1317
g1312
ag1313
ag1314
aa(lp1318
g1313
ag1314
aS'G6349'
p1319
aS'G6350'
p1320
aa(lp1321
g1313
ag1314
aa(lp1322
g1314
aa(lp1323
g1320
aS'EG11412'
p1324
aS'EG10855'
p1325
aa(lp1326
g1320
ag1324
aa(lp1327
g1320
aa(lp1328
g1324
ag1325
aS'EG10532'
p1329
aa(lp1330
g1324
ag1325
aa(lp1331
g1325
ag1329
aa(lp1332
g1325
aa(lp1333
g1329
aa(lp1334
S'EG12851'
p1335
aa(lp1336
S'G6355'
p1337
aa(lp1338
S'G6356'
p1339
aa(lp1340
S'G6357'
p1341
aS'G6358'
p1342
aa(lp1343
g1342
aa(lp1344
S'EG12663'
p1345
aS'EG12662'
p1346
aS'EG12661'
p1347
aS'G6359'
p1348
aa(lp1349
g1345
aa(lp1350
g1346
ag1347
ag1348
aa(lp1351
g1347
ag1348
aa(lp1352
g1347
aa(lp1353
g1348
aa(lp1354
g1348
aS'G6360'
p1355
aa(lp1356
S'EG10168'
p1357
aa(lp1358
g1357
aS'G6361'
p1359
aa(lp1360
g1357
ag1359
aS'G6362'
p1361
aa(lp1362
g1357
ag1359
ag1361
aS'G6363'
p1363
aa(lp1364
g1359
ag1361
ag1363
aS'G6364'
p1365
aa(lp1366
g1359
ag1361
ag1363
aa(lp1367
g1359
aa(lp1368
g1359
ag1361
aa(lp1369
g1361
ag1363
aa(lp1370
g1361
aa(lp1371
g1361
ag1363
ag1365
aa(lp1372
g1363
aa(lp1373
g1363
ag1365
aa(lp1374
g1365
aa(lp1375
S'G6365'
p1376
aS'EG30031'
p1377
aa(lp1378
g1376
ag1377
aS'EG30029'
p1379
aS'EG30059'
p1380
aS'EG30030'
p1381
aa(lp1382
g1376
ag1377
ag1379
ag1380
ag1381
aS'EG30028'
p1383
aS'EG30052'
p1384
aS'EG30058'
p1385
aa(lp1386
g1376
aa(lp1387
g1377
ag1379
ag1380
ag1381
ag1383
ag1384
ag1385
aa(lp1388
g1379
ag1380
ag1381
ag1383
ag1384
aa(lp1389
g1381
ag1383
ag1384
ag1385
aS'EG10092'
p1390
aa(lp1391
g1383
ag1384
ag1385
aa(lp1392
g1383
ag1384
ag1385
ag1390
aa(lp1393
g1384
ag1385
aa(lp1394
g1384
ag1385
ag1390
aa(lp1395
g1385
aa(lp1396
g1385
ag1390
aa(lp1397
g1390
aa(lp1398
S'EG10634'
p1399
aa(lp1400
g1399
aS'EG10636'
p1401
aS'EG10632'
p1402
aS'EG10633'
p1403
aa(lp1404
g1399
ag1401
aa(lp1405
g1401
ag1402
ag1403
aa(lp1406
g1401
aa(lp1407
g1401
ag1402
aa(lp1408
g1402
aa(lp1409
g1402
ag1403
aa(lp1410
g1403
aa(lp1411
S'EG10635'
p1412
aa(lp1413
S'EG10390'
p1414
aa(lp1415
S'G6370'
p1416
aa(lp1417
S'EG10359'
p1418
aS'G0-10580'
p1419
aS'EG10318'
p1420
aS'EG11775'
p1421
aa(lp1422
g1418
aa(lp1423
g1418
ag1419
aa(lp1424
g1418
ag1419
ag1420
aa(lp1425
g1419
aa(lp1426
g1419
ag1420
aa(lp1427
g1419
ag1420
ag1421
aa(lp1428
g1420
ag1421
aS'EG11776'
p1429
aa(lp1430
g1420
aa(lp1431
g1420
ag1421
aa(lp1432
g1421
aa(lp1433
g1421
ag1429
aa(lp1434
g1429
aa(lp1435
S'EG12197'
p1436
aS'EG12144'
p1437
aS'G6374'
p1438
aa(lp1439
g1436
aa(lp1440
g1436
ag1437
aa(lp1441
g1437
aa(lp1442
g570
aS'EG10753'
p1443
aa(lp1444
g1443
aa(lp1445
S'EG10964'
p1446
aa(lp1447
S'EG10517'
p1448
aS'EG10516'
p1449
aa(lp1450
g1448
aa(lp1451
g1449
aa(lp1452
S'EG10515'
p1453
aa(lp1454
S'EG10513'
p1455
aS'G0-10439'
p1456
aa(lp1457
g1456
aa(lp1458
S'EG11521'
p1459
aa(lp1460
S'EG11108'
p1461
aa(lp1462
g1461
aS'EG10736'
p1463
aa(lp1464
g1463
aa(lp1465
S'G6378'
p1466
aa(lp1467
S'G6379'
p1468
aa(lp1469
g1468
aS'G6380'
p1470
aa(lp1471
g1468
ag1470
aS'G6381'
p1472
aS'G6382'
p1473
aS'G6383'
p1474
aa(lp1475
g1468
ag1470
ag1472
ag1473
aa(lp1476
g1468
ag1470
ag1472
aa(lp1477
g1470
ag1472
aa(lp1478
g1470
ag1472
ag1473
aa(lp1479
g1470
ag1472
ag1473
ag1474
aa(lp1480
g1470
aa(lp1481
g1472
aa(lp1482
g1472
ag1473
ag1474
aa(lp1483
g1472
ag1473
aa(lp1484
g1473
aa(lp1485
g1473
ag1474
aa(lp1486
g1474
aa(lp1487
S'G6384'
p1488
aa(lp1489
S'EG10402'
p1490
aa(lp1491
S'EG10933'
p1492
aa(lp1493
g1492
aS'EG10934'
p1494
aS'EG10931'
p1495
aS'EG10932'
p1496
aa(lp1497
g1492
ag1494
ag1495
aa(lp1498
g1492
ag1494
aa(lp1499
g1494
ag1495
ag1496
aa(lp1500
g1494
ag1495
aa(lp1501
g1494
aa(lp1502
g1495
ag1496
aa(lp1503
g1495
aa(lp1504
g1496
aa(lp1505
S'EG10979'
p1506
aa(lp1507
g1506
aS'EG10980'
p1508
aa(lp1509
g1508
aS'EG10981'
p1510
aS'EG10982'
p1511
aa(lp1512
g1508
aa(lp1513
g1508
ag1510
aa(lp1514
g1510
ag1511
aa(lp1515
g1510
aa(lp1516
g1511
aa(lp1517
S'EG11109'
p1518
aa(lp1519
S'EG10173'
p1520
aS'EG10174'
p1521
aa(lp1522
g1520
ag1521
aS'G0-10441'
p1523
aS'EG12395'
p1524
aa(lp1525
g1520
ag1521
ag1523
ag1524
aS'EG11110'
p1526
aa(lp1527
g1520
aa(lp1528
g1520
ag1521
ag1523
aa(lp1529
g1521
ag1523
ag1524
aa(lp1530
g1521
ag1523
aa(lp1531
g1523
aa(lp1532
g1523
ag1524
aa(lp1533
g1526
aa(lp1534
g1526
aS'EG11010'
p1535
aa(lp1536
g1526
ag1535
aS'EG11011'
p1537
aa(lp1538
g1526
ag1535
ag1537
aS'EG11007'
p1539
aa(lp1540
g1526
ag1535
ag1537
ag1539
aS'EG11008'
p1541
aa(lp1542
g1535
ag1537
ag1539
aa(lp1543
g1535
ag1537
aa(lp1544
g1535
aa(lp1545
g1537
ag1539
aa(lp1546
g1537
aa(lp1547
g1541
aS'EG10684'
p1548
aS'EG12854'
p1549
aS'EG30055'
p1550
aS'EG30109'
p1551
aS'EG30057'
p1552
aS'G6389'
p1553
aS'G6390'
p1554
aa(lp1555
g1541
ag1548
ag1549
aa(lp1556
g1541
ag1548
ag1549
ag1550
aa(lp1557
g1541
ag1548
aa(lp1558
g1541
ag1548
ag1549
ag1550
ag1551
ag1552
ag1553
ag1554
aS'G6391'
p1559
aS'G6392'
p1560
aa(lp1561
g1541
ag1548
ag1549
ag1550
ag1551
aa(lp1562
g1541
ag1548
ag1549
ag1550
ag1551
ag1552
aa(lp1563
g1541
ag1548
ag1549
ag1550
ag1551
ag1552
ag1553
aa(lp1564
g1541
aa(lp1565
g1541
ag1548
ag1549
ag1550
ag1551
ag1552
ag1553
ag1554
ag1559
aa(lp1566
g1548
ag1549
ag1550
ag1551
ag1552
ag1553
ag1554
ag1559
ag1560
aa(lp1567
g1548
ag1549
aa(lp1568
g1548
ag1549
ag1550
ag1551
ag1552
ag1553
ag1554
aa(lp1569
g1548
ag1549
ag1550
aa(lp1570
g1548
ag1549
ag1550
ag1551
ag1552
ag1553
aa(lp1571
g1548
ag1549
ag1550
ag1551
ag1552
aa(lp1572
g1548
ag1549
ag1550
ag1551
aa(lp1573
g1548
aa(lp1574
g1548
ag1549
ag1550
ag1551
ag1552
ag1553
ag1554
ag1559
aa(lp1575
g1549
ag1550
ag1551
ag1552
ag1553
ag1554
aa(lp1576
g1550
ag1551
ag1552
aa(lp1577
g1550
ag1551
aa(lp1578
g1550
ag1551
ag1552
ag1553
ag1554
ag1559
ag1560
aa(lp1579
g1550
ag1551
ag1552
ag1553
ag1554
ag1559
aa(lp1580
g1550
ag1551
ag1552
ag1553
ag1554
aa(lp1581
g1550
aa(lp1582
g1550
ag1551
ag1552
ag1553
aa(lp1583
g1551
aa(lp1584
g1551
ag1552
ag1553
ag1554
ag1559
ag1560
aa(lp1585
g1551
ag1552
aa(lp1586
g1551
ag1552
ag1553
ag1554
ag1559
aa(lp1587
g1552
ag1553
aa(lp1588
g1553
ag1554
ag1559
ag1560
aa(lp1589
S'EG10630'
p1590
aa(lp1591
g1590
aS'EG11700'
p1592
aa(lp1593
g1592
aa(lp1594
S'G6393'
p1595
aa(lp1596
S'EG10079'
p1597
aa(lp1598
S'EG11699'
p1599
aS'EG11698'
p1600
aa(lp1601
g1599
aa(lp1602
g1600
aS'EG10363'
p1603
aS'EG10366'
p1604
aa(lp1605
g1600
aa(lp1606
g1600
ag1603
ag1604
aS'EG10362'
p1607
aa(lp1608
g1603
ag1604
ag1607
aa(lp1609
g1603
ag1604
aa(lp1610
g1603
aa(lp1611
g1604
aa(lp1612
g1604
ag1607
aa(lp1613
g1607
aa(lp1614
S'EG11677'
p1615
aS'G6395'
p1616
aa(lp1617
g1615
aa(lp1618
g1616
aa(lp1619
g1616
aS'G6396'
p1620
aa(lp1621
g1620
aS'EG12427'
p1622
aS'EG10002'
p1623
aS'EG10152'
p1624
aa(lp1625
g1620
aa(lp1626
g1620
ag1622
ag1623
aa(lp1627
g1622
aa(lp1628
g1622
ag1623
ag1624
aS'EG11239'
p1629
aa(lp1630
g1622
ag1623
aa(lp1631
g1622
ag1623
ag1624
aa(lp1632
g1623
ag1624
aa(lp1633
g1623
aa(lp1634
g1629
aa(lp1635
S'G6397'
p1636
aa(lp1637
S'EG12875'
p1638
aS'EG11238'
p1639
aS'EG10117'
p1640
aa(lp1641
g1638
aa(lp1642
g1638
ag1639
aa(lp1643
g1639
aa(lp1644
g1639
ag1640
aa(lp1645
g1640
aa(lp1646
S'EG10118'
p1647
aS'EG10121'
p1648
aS'EG10119'
p1649
aS'EG10120'
p1650
aa(lp1651
g1647
ag1648
ag1649
aa(lp1652
g1647
aa(lp1653
g1647
ag1648
aa(lp1654
g1649
ag1650
aa(lp1655
g1649
aa(lp1656
g1650
aa(lp1657
S'EG11062'
p1658
aa(lp1659
S'G6402'
p1660
aa(lp1661
S'EG11595'
p1662
aS'EG11596'
p1663
aS'EG11666'
p1664
aS'EG11597'
p1665
aS'EG11598'
p1666
aa(lp1667
g1662
aa(lp1668
g1662
ag1663
ag1664
aa(lp1669
g1662
ag1663
ag1664
ag1665
aa(lp1670
g1662
ag1663
aa(lp1671
g1663
aa(lp1672
g1663
ag1664
ag1665
ag1666
aa(lp1673
g1663
ag1664
aa(lp1674
g1663
ag1664
ag1665
aa(lp1675
g1664
ag1665
aa(lp1676
g1664
ag1665
ag1666
aa(lp1677
S'G6403'
p1678
aa(lp1679
S'G6408'
p1680
aa(lp1681
S'G6411'
p1682
aS'G6412'
p1683
aa(lp1684
g1682
ag1683
aS'EG12406'
p1685
aa(lp1686
g1682
aa(lp1687
g1683
aa(lp1688
g1683
ag1685
aa(lp1689
g1685
aa(lp1690
S'EG11235'
p1691
aa(lp1692
S'EG11579'
p1693
aa(lp1694
S'EG11357'
p1695
aa(lp1696
S'EG11580'
p1697
aa(lp1698
g1697
aS'EG11581'
p1699
aa(lp1700
g1699
aa(lp1701
g1699
aS'EG12422'
p1702
aS'EG12421'
p1703
aa(lp1704
g1699
ag1702
aa(lp1705
g1702
ag1703
aS'G6413'
p1706
aa(lp1707
g1702
ag1703
ag1706
aS'G6414'
p1708
aa(lp1709
g1702
aa(lp1710
g1703
ag1706
aa(lp1711
g1703
ag1706
ag1708
aa(lp1712
g1706
ag1708
aa(lp1713
g1706
aa(lp1714
g1708
aa(lp1715
S'G6415'
p1716
aa(lp1717
S'G6416'
p1718
aa(lp1719
S'EG10386'
p1720
aa(lp1721
S'EG11415'
p1722
aa(lp1723
S'EG12134'
p1724
aa(lp1725
S'EG12117'
p1726
aa(lp1727
S'G0-10715'
p1728
aa(lp1729
g1728
aS'G6420'
p1730
aa(lp1731
g1730
aa(lp1732
g1730
aS'G6421'
p1733
aa(lp1734
S'G6422'
p1735
aa(lp1736
S'G6423'
p1737
aa(lp1738
S'G6424'
p1739
aa(lp1740
S'G6425'
p1741
aa(lp1742
S'G6428'
p1743
aa(lp1744
S'EG10154'
p1745
aa(lp1746
g1745
aS'EG10153'
p1747
aa(lp1748
g1747
aa(lp1749
S'EG12407'
p1750
aa(lp1751
g1750
aS'G6429'
p1752
aa(lp1753
g1752
aa(lp1754
g1752
aS'G6430'
p1755
aa(lp1756
g1755
aa(lp1757
S'G6431'
p1758
aS'G6432'
p1759
aa(lp1760
g1758
aa(lp1761
S'G6435'
p1762
aa(lp1763
S'G6437'
p1764
aa(lp1765
S'G6438'
p1766
aa(lp1767
S'EG10203'
p1768
aa(lp1769
S'EG10223'
p1770
aa(lp1771
g1770
aS'G6439'
p1772
aa(lp1773
g1772
aa(lp1774
S'G6440'
p1775
aa(lp1776
S'G6442'
p1777
aS'G6443'
p1778
aa(lp1779
g1777
aa(lp1780
g1778
aa(lp1781
S'G6444'
p1782
aS'G0-8880'
p1783
aa(lp1784
g1782
aa(lp1785
g1783
aS'G6445'
p1786
aa(lp1787
g1783
aa(lp1788
g1786
aa(lp1789
S'G6446'
p1790
aa(lp1791
S'EG12842'
p1792
aS'EG11261'
p1793
aS'EG10852'
p1794
aa(lp1795
g1792
aa(lp1796
g1792
ag1793
aa(lp1797
g1792
ag1793
ag1794
aS'G6447'
p1798
aa(lp1799
g1793
ag1794
ag1798
aa(lp1800
g1793
aa(lp1801
g1793
ag1794
aa(lp1802
g1794
aa(lp1803
g1794
ag1798
aa(lp1804
g1798
aa(lp1805
g1798
aS'EG11629'
p1806
aa(lp1807
g1806
aa(lp1808
g1806
aS'EG11630'
p1809
aS'EG11631'
p1810
aS'EG11632'
p1811
aa(lp1812
g1806
ag1809
aa(lp1813
g1806
ag1809
ag1810
aa(lp1814
S'G6448'
p1815
aS'G6449'
p1816
aa(lp1817
g1815
aa(lp1818
g1816
aa(lp1819
S'EG11628'
p1820
aa(lp1821
S'EG11627'
p1822
aa(lp1823
g1822
aS'EG11626'
p1824
aS'EG11625'
p1825
aa(lp1826
g1822
ag1824
ag1825
aS'EG11624'
p1827
aa(lp1828
g1824
ag1825
ag1827
aS'G6450'
p1829
aa(lp1830
g1824
aa(lp1831
g1824
ag1825
ag1827
aa(lp1832
g1824
ag1825
aa(lp1833
g1825
ag1827
aa(lp1834
g1825
aa(lp1835
g1827
aa(lp1836
g1827
ag1829
aa(lp1837
g1829
aS'G6451'
p1838
aa(lp1839
g1829
aa(lp1840
g1838
aS'G6452'
p1841
aa(lp1842
g1838
aa(lp1843
g1838
ag1841
aS'G6453'
p1844
aa(lp1845
g1841
aa(lp1846
g1844
aa(lp1847
g1844
aS'G6454'
p1848
aS'G6455'
p1849
aa(lp1850
g1844
ag1848
aa(lp1851
g1848
aa(lp1852
g1848
ag1849
aa(lp1853
g1849
aa(lp1854
g1849
aS'EG10754'
p1855
aa(lp1856
g1855
aa(lp1857
S'G6456'
p1858
aa(lp1859
S'G6457'
p1860
aa(lp1861
S'EG13270'
p1862
aa(lp1863
S'G6459'
p1864
aa(lp1865
S'G6461'
p1866
aa(lp1867
g1866
aS'G6462'
p1868
aS'EG11111'
p1869
aa(lp1870
g1868
aa(lp1871
g1869
aa(lp1872
g1869
aS'G6463'
p1873
aS'EG10156'
p1874
aa(lp1875
g1869
ag1873
aa(lp1876
g1873
ag1874
aa(lp1877
g1873
aa(lp1878
g1874
aa(lp1879
S'EG30096'
p1880
aa(lp1881
S'EG10504'
p1882
aa(lp1883
S'EG11112'
p1884
aa(lp1885
g1884
aS'EG10012'
p1886
aa(lp1887
g1886
aS'EG11405'
p1888
aa(lp1889
g1888
aa(lp1890
S'EG11032'
p1891
aa(lp1892
S'EG10547'
p1893
aa(lp1894
S'G6465'
p1895
aS'EG12690'
p1896
aa(lp1897
g1895
aa(lp1898
g1896
aa(lp1899
S'EG10947'
p1900
aa(lp1901
S'EG10232'
p1902
aS'EG10233'
p1903
aa(lp1904
g1902
aa(lp1905
g1902
ag1903
aS'EG10234'
p1906
aa(lp1907
g1903
ag1906
aa(lp1908
S'EG11241'
p1909
aa(lp1910
S'EG11242'
p1911
aa(lp1912
S'G6466'
p1913
aa(lp1914
S'G6467'
p1915
aa(lp1916
S'EG12702'
p1917
aa(lp1918
S'EG10028'
p1919
aa(lp1920
S'EG10701'
p1921
aS'EG11258'
p1922
aa(lp1923
g1921
aa(lp1924
g1922
aS'G6468'
p1925
aa(lp1926
g1922
aa(lp1927
g1925
aa(lp1928
S'EG10946'
p1929
aS'EG10073'
p1930
aS'G6470'
p1931
aa(lp1932
g1929
ag1930
aa(lp1933
g1929
aa(lp1934
g1930
ag1931
aa(lp1935
g1930
aa(lp1936
S'EG11265'
p1937
aS'EG10900'
p1938
aS'EG10441'
p1939
aa(lp1940
g1937
ag1938
aa(lp1941
g1937
aa(lp1942
g1938
ag1939
aa(lp1943
g1938
aa(lp1944
g1939
aa(lp1945
S'EG10613'
p1946
aS'EG11409'
p1947
aS'G6471'
p1948
aa(lp1949
g1946
ag1947
ag1948
aS'G6472'
p1950
aa(lp1951
g1946
ag1947
aa(lp1952
g1946
aa(lp1953
g1947
aa(lp1954
g1950
aS'EG10519'
p1955
aS'G6473'
p1956
aa(lp1957
g1950
ag1955
aa(lp1958
g1950
aa(lp1959
g1956
aa(lp1960
S'EG12166'
p1961
aa(lp1962
S'EG12167'
p1963
aa(lp1964
g1963
aS'EG12165'
p1965
aS'EG11252'
p1966
aa(lp1967
g1963
ag1965
aa(lp1968
g1965
aa(lp1969
g1965
ag1966
aa(lp1970
g1966
aa(lp1971
S'EG11253'
p1972
aa(lp1973
g1972
aS'G6474'
p1974
aS'G6475'
p1975
aa(lp1976
g1974
ag1975
aa(lp1977
g1974
aa(lp1978
g1975
aa(lp1979
S'EG10096'
p1980
aS'EG10671'
p1981
aa(lp1982
g1980
aa(lp1983
g1981
aa(lp1984
S'EG10094'
p1985
aa(lp1986
S'EG10742'
p1987
aa(lp1988
S'EG10696'
p1989
aa(lp1990
S'EG12358'
p1991
aS'G6476'
p1992
aS'G6477'
p1993
aa(lp1994
g1991
aa(lp1995
g1992
ag1993
aS'G6478'
p1996
aS'G6479'
p1997
aa(lp1998
g1996
ag1997
aa(lp1999
g1997
aa(lp2000
S'G6480'
p2001
aS'G6481'
p2002
aa(lp2003
S'G6483'
p2004
aS'G6484'
p2005
aa(lp2006
g2005
aS'G6485'
p2007
aa(lp2008
S'EG10807'
p2009
aa(lp2010
S'G6486'
p2011
aa(lp2012
S'G6487'
p2013
aa(lp2014
S'G6488'
p2015
aa(lp2016
g2015
aS'G6489'
p2017
aa(lp2018
g2017
aa(lp2019
S'G6490'
p2020
aa(lp2021
S'G6491'
p2022
aa(lp2023
S'EG50004'
p2024
aS'EG10273'
p2025
aa(lp2026
g2024
ag2025
aS'G6493'
p2027
aa(lp2028
g2024
aa(lp2029
g2025
aa(lp2030
g2025
ag2027
aa(lp2031
g2027
aa(lp2032
S'EG12855'
p2033
aa(lp2034
S'EG10669'
p2035
aS'EG10984'
p2036
aa(lp2037
g2035
aa(lp2038
g2036
aa(lp2039
S'G6494'
p2040
aa(lp2041
S'G6495'
p2042
aS'G6496'
p2043
aa(lp2044
g2043
aa(lp2045
S'EG10426'
p2046
aa(lp2047
S'G6497'
p2048
aa(lp2049
S'G6499'
p2050
aS'G6500'
p2051
aa(lp2052
g2050
aa(lp2053
g2051
aS'G6501'
p2054
aa(lp2055
g2051
aa(lp2056
g2054
aa(lp2057
S'G6502'
p2058
aa(lp2059
S'EG12876'
p2060
aS'EG11113'
p2061
aa(lp2062
g2060
aa(lp2063
g2061
aS'EG30093'
p2064
aa(lp2065
g2061
aa(lp2066
S'EG10468'
p2067
aa(lp2068
S'EG10469'
p2069
aa(lp2070
S'EG10470'
p2071
aS'EG10471'
p2072
aS'EG10472'
p2073
aa(lp2074
g2072
ag2073
aS'EG10473'
p2075
aa(lp2076
g2072
aa(lp2077
g2072
ag2073
aa(lp2078
S'EG11380'
p2079
aa(lp2080
g2079
aS'EG11379'
p2081
aS'G0-10588'
p2082
aS'EG10049'
p2083
aa(lp2084
g2079
ag2081
ag2082
aa(lp2085
g2082
aa(lp2086
g2082
ag2083
aa(lp2087
S'EG11826'
p2088
aS'G6503'
p2089
aa(lp2090
g2089
aa(lp2091
S'G6505'
p2092
aS'G6506'
p2093
aa(lp2094
g2093
aa(lp2095
S'G6508'
p2096
aS'G0-10430'
p2097
aS'G6509'
p2098
aa(lp2099
g2097
ag2098
aa(lp2100
S'G0-9662'
p2101
aa(lp2102
S'G6513'
p2103
aa(lp2104
S'G6514'
p2105
aa(lp2106
S'G6515'
p2107
aa(lp2108
S'EG12615'
p2109
aa(lp2110
S'EG11815'
p2111
aS'EG11814'
p2112
aa(lp2113
S'EG12195'
p2114
aa(lp2115
S'EG12194'
p2116
aS'EG12193'
p2117
aa(lp2118
g2117
aa(lp2119
S'EG10033'
p2120
aa(lp2121
S'EG12703'
p2122
aS'EG11540'
p2123
aa(lp2124
S'G0-10443'
p2125
aa(lp2126
S'G6517'
p2127
aS'G6518'
p2128
aa(lp2129
g2128
aS'G6519'
p2130
aS'G6520'
p2131
aa(lp2132
S'G6522'
p2133
aS'G6523'
p2134
aa(lp2135
S'EG12301'
p2136
aa(lp2137
S'EG10801'
p2138
aa(lp2139
S'EG10802'
p2140
aa(lp2141
S'G6525'
p2142
aa(lp2143
g2142
aS'G6527'
p2144
aS'EG11735'
p2145
aa(lp2146
g2142
ag2144
aa(lp2147
g2144
ag2145
aa(lp2148
g2144
aa(lp2149
S'EG11734'
p2150
aa(lp2151
S'G6530'
p2152
aa(lp2153
S'G6533'
p2154
aS'G6534'
p2155
aa(lp2156
S'EG30097'
p2157
aa(lp2158
S'G6539'
p2159
aS'G6540'
p2160
aa(lp2161
g2159
aa(lp2162
g2159
ag2160
aS'G6541'
p2163
aa(lp2164
g2159
ag2160
ag2163
aS'G6542'
p2165
aa(lp2166
g2160
ag2163
ag2165
aa(lp2167
g2160
ag2163
aa(lp2168
g2160
aa(lp2169
g2163
ag2165
aa(lp2170
g2163
aa(lp2171
g2165
aa(lp2172
S'G6544'
p2173
aS'G6545'
p2174
aS'G6546'
p2175
aa(lp2176
g2174
ag2175
aa(lp2177
g2175
aa(lp2178
S'EG11489'
p2179
aa(lp2180
S'G6549'
p2181
aS'G6550'
p2182
aa(lp2183
g2182
aa(lp2184
g2182
aS'G6551'
p2185
aa(lp2186
g2185
aa(lp2187
S'G6552'
p2188
aa(lp2189
S'EG11885'
p2190
aS'EG11886'
p2191
aa(lp2192
g2190
aa(lp2193
g2191
aa(lp2194
g2191
aS'EG12689'
p2195
aa(lp2196
g2195
aS'EG11338'
p2197
aS'EG11343'
p2198
aS'EG10464'
p2199
aa(lp2200
g2195
ag2197
aa(lp2201
g2195
aa(lp2202
g2199
aa(lp2203
S'EG11116'
p2204
aa(lp2205
S'EG11820'
p2206
aS'G6554'
p2207
aa(lp2208
g2207
aS'G6555'
p2209
aS'G6556'
p2210
aa(lp2211
g2207
aa(lp2212
g2209
ag2210
aa(lp2213
g2210
aa(lp2214
S'G6557'
p2215
aS'G6558'
p2216
aa(lp2217
g2215
aa(lp2218
g2216
aa(lp2219
g2216
aS'EG10806'
p2220
aa(lp2221
g2220
aa(lp2222
S'EG11117'
p2223
aS'EG12688'
p2224
aa(lp2225
g2223
aa(lp2226
g2224
aa(lp2227
S'EG10851'
p2228
aS'EG11537'
p2229
aa(lp2230
g2228
aa(lp2231
g2228
ag2229
aS'G6560'
p2232
aa(lp2233
g2228
ag2229
ag2232
aS'G6561'
p2234
aa(lp2235
g2229
aa(lp2236
g2229
ag2232
aa(lp2237
g2234
aa(lp2238
S'G6562'
p2239
aS'G369'
p2240
aa(lp2241
g2240
aa(lp2242
S'G358'
p2243
aS'G359'
p2244
aS'G360'
p2245
aS'G361'
p2246
aS'G362'
p2247
aa(lp2248
g2243
ag2244
aa(lp2249
g2243
ag2244
ag2245
ag2246
aa(lp2250
g2243
ag2244
ag2245
aa(lp2251
g2246
ag2247
aa(lp2252
g2246
ag2247
aS'G363'
p2253
aa(lp2254
g2247
aa(lp2255
g2247
ag2253
aS'G364'
p2256
aa(lp2257
g2253
ag2256
aS'G365'
p2258
aa(lp2259
S'EG11967'
p2260
aS'EG11545'
p2261
aa(lp2262
S'EG10859'
p2263
aa(lp2264
S'G6563'
p2265
aa(lp2266
S'EG11118'
p2267
aa(lp2268
S'EG11438'
p2269
aa(lp2270
S'G0-8862'
p2271
aa(lp2272
S'EG11119'
p2273
aS'EG10890'
p2274
aS'EG11437'
p2275
aS'EG10277'
p2276
aa(lp2277
g2273
ag2274
ag2275
aa(lp2278
g2273
ag2274
ag2275
ag2276
aS'EG11317'
p2279
aa(lp2280
g2273
aa(lp2281
g2273
ag2274
aa(lp2282
g2274
aa(lp2283
g2274
ag2275
ag2276
aa(lp2284
g2274
ag2275
aa(lp2285
g2276
ag2279
aS'EG11318'
p2286
aS'EG50003'
p2287
aa(lp2288
g2276
ag2279
ag2286
aa(lp2289
g2276
ag2279
aa(lp2290
g2276
aa(lp2291
g2279
ag2286
aa(lp2292
g2279
ag2286
ag2287
aa(lp2293
g2279
ag2286
ag2287
aS'EG12606'
p2294
aa(lp2295
g2279
aa(lp2296
g2286
aa(lp2297
g2286
ag2287
ag2294
aa(lp2298
g2286
ag2287
aa(lp2299
g2287
aa(lp2300
g2287
ag2294
aS'EG11493'
p2301
aa(lp2302
g2287
ag2294
aa(lp2303
g2287
ag2294
ag2301
aS'EG11494'
p2304
aa(lp2305
g2294
aa(lp2306
g2301
ag2304
aS'EG12302'
p2307
aa(lp2308
g2301
ag2304
aa(lp2309
g2301
aa(lp2310
g2304
aa(lp2311
g2304
ag2307
aa(lp2312
g2307
aS'EG11500'
p2313
aa(lp2314
g2307
aa(lp2315
g2307
ag2313
aS'EG12303'
p2316
aa(lp2317
g2313
aa(lp2318
g2316
aa(lp2319
S'EG10787'
p2320
aa(lp2321
S'EG10306'
p2322
aa(lp2323
S'EG12172'
p2324
aS'G6564'
p2325
aS'G6565'
p2326
aS'G6566'
p2327
aS'G6567'
p2328
aS'G6568'
p2329
aa(lp2330
g2324
ag2325
ag2326
aa(lp2331
g2324
ag2325
ag2326
ag2327
aa(lp2332
g2324
aa(lp2333
g2324
ag2325
ag2326
ag2327
ag2328
aa(lp2334
g2324
ag2325
aa(lp2335
g2325
ag2326
aa(lp2336
g2325
ag2326
ag2327
ag2328
ag2329
aa(lp2337
g2326
ag2327
ag2328
ag2329
aa(lp2338
g2326
aa(lp2339
g2328
aa(lp2340
g2328
ag2329
aa(lp2341
g2329
aa(lp2342
S'EG10649'
p2343
aa(lp2344
S'EG12444'
p2345
aS'G6569'
p2346
aa(lp2347
g2346
aa(lp2348
S'G6570'
p2349
aa(lp2350
S'G6571'
p2351
aa(lp2352
S'EG11619'
p2353
aa(lp2354
S'G6572'
p2355
aa(lp2356
S'G6573'
p2357
aS'G6574'
p2358
aS'G6575'
p2359
aa(lp2360
g2357
aa(lp2361
g2357
ag2358
ag2359
aS'G6576'
p2362
aa(lp2363
g2357
ag2358
aa(lp2364
g2358
ag2359
aa(lp2365
g2358
aa(lp2366
g2359
aa(lp2367
g2362
aS'G6577'
p2368
aa(lp2369
g2362
aa(lp2370
g2368
aa(lp2371
S'G6579'
p2372
aS'EG10752'
p2373
aa(lp2374
g2372
ag2373
aS'EG10751'
p2375
aa(lp2376
g2373
ag2375
aS'EG10750'
p2377
aS'EG10749'
p2378
aa(lp2379
g2373
aa(lp2380
g2375
aa(lp2381
g2375
ag2377
ag2378
aa(lp2382
g2375
ag2377
aa(lp2383
g2377
aa(lp2384
g2377
ag2378
aa(lp2385
g2378
aa(lp2386
S'EG11549'
p2387
aa(lp2388
S'EG11430'
p2389
aS'EG10732'
p2390
aS'EG10731'
p2391
aa(lp2392
g2389
aa(lp2393
g2390
aa(lp2394
g2390
ag2391
aa(lp2395
g2391
aa(lp2396
S'EG11314'
p2397
aa(lp2398
g2397
aS'EG11345'
p2399
aa(lp2400
g2397
ag2399
aS'EG11344'
p2401
aa(lp2402
g2399
aa(lp2403
g2399
ag2401
aS'G6580'
p2404
aS'G6581'
p2405
aa(lp2406
g2399
ag2401
ag2404
aa(lp2407
g2399
ag2401
aa(lp2408
g2401
ag2404
aa(lp2409
g2401
aa(lp2410
g2404
aa(lp2411
S'EG10489'
p2412
aa(lp2413
S'G6582'
p2414
aS'G6583'
p2415
aa(lp2416
g2415
aa(lp2417
S'EG10535'
p2418
aa(lp2419
S'G6587'
p2420
aa(lp2421
g2420
aS'G6588'
p2422
aa(lp2423
S'EG11120'
p2424
aa(lp2425
S'EG10573'
p2426
aa(lp2427
g2426
aS'G0-10556'
p2428
aa(lp2429
S'G6600'
p2430
aa(lp2431
S'G6601'
p2432
aa(lp2433
S'G6602'
p2434
aa(lp2435
g2434
aS'G6603'
p2436
aa(lp2437
g2436
aa(lp2438
S'G6604'
p2439
aS'G6605'
p2440
aS'G6606'
p2441
aa(lp2442
g2439
ag2440
aa(lp2443
g2439
ag2440
ag2441
aS'G6607'
p2444
aa(lp2445
S'G6611'
p2446
aS'G6612'
p2447
aa(lp2448
g2447
aa(lp2449
S'EG10598'
p2450
aa(lp2451
g2450
aS'EG10597'
p2452
aS'EG10596'
p2453
aa(lp2454
g2450
ag2452
aa(lp2455
g2452
ag2453
aa(lp2456
g2452
aa(lp2457
g2453
aa(lp2458
S'G6614'
p2459
aS'G6615'
p2460
aS'G6616'
p2461
aS'G6617'
p2462
aa(lp2463
g2459
aa(lp2464
g2459
ag2460
ag2461
aa(lp2465
g2460
aa(lp2466
g2460
ag2461
aa(lp2467
g2461
aa(lp2468
g2461
ag2462
aS'G6618'
p2469
aa(lp2470
g2461
ag2462
aa(lp2471
g2462
aa(lp2472
g2469
aa(lp2473
S'EG11057'
p2474
aa(lp2475
g2474
aS'EG11056'
p2476
aa(lp2477
S'EG11393'
p2478
aa(lp2479
g2478
aS'EG11392'
p2480
aa(lp2481
g2480
aa(lp2482
S'EG10281'
p2483
aa(lp2484
S'EG11407'
p2485
aa(lp2486
g2485
aS'EG11408'
p2487
aa(lp2488
g2487
aa(lp2489
S'G6620'
p2490
aa(lp2491
g2490
aS'G6621'
p2492
aa(lp2493
g2492
aa(lp2494
S'G6622'
p2495
aa(lp2496
S'EG12399'
p2497
aS'G6626'
p2498
aS'G6627'
p2499
aa(lp2500
g2497
ag2498
aa(lp2501
g2497
aa(lp2502
g2498
ag2499
aa(lp2503
g2498
aa(lp2504
g2499
aa(lp2505
S'G6628'
p2506
aa(lp2507
S'EG11404'
p2508
aa(lp2509
g2508
aS'EG10785'
p2510
aa(lp2511
g2510
aa(lp2512
S'EG11533'
p2513
aa(lp2514
S'EG12392'
p2515
aS'EG10774'
p2516
aa(lp2517
g2515
aa(lp2518
g2515
ag2516
aS'EG11294'
p2519
aS'EG11293'
p2520
aa(lp2521
g2516
aa(lp2522
g2516
ag2519
ag2520
aa(lp2523
g2516
ag2519
aa(lp2524
g2519
aa(lp2525
g2519
ag2520
aa(lp2526
g2520
aa(lp2527
S'EG10427'
p2528
aS'EG10761'
p2529
aa(lp2530
g2528
aa(lp2531
g2528
ag2529
aS'EG12424'
p2532
aa(lp2533
g2529
ag2532
aS'G6630'
p2534
aS'EG11251'
p2535
aa(lp2536
g2532
aa(lp2537
g2534
ag2535
aS'EG10518'
p2538
aa(lp2539
g2534
ag2535
ag2538
aS'G0-9602'
p2540
aa(lp2541
g2534
aa(lp2542
g2535
ag2538
ag2540
aa(lp2543
g2535
ag2538
aa(lp2544
g2535
aa(lp2545
g2535
ag2538
ag2540
aS'G0-9603'
p2546
aa(lp2547
g2538
aa(lp2548
g2538
ag2540
aa(lp2549
g2538
ag2540
ag2546
aa(lp2550
S'EG11753'
p2551
aa(lp2552
S'EG12402'
p2553
aa(lp2554
g2553
aS'EG12403'
p2555
aa(lp2556
g2555
aa(lp2557
S'EG12404'
p2558
aa(lp2559
S'EG12405'
p2560
aa(lp2561
S'EG10643'
p2562
aS'EG10646'
p2563
aa(lp2564
g2562
aa(lp2565
g2563
aa(lp2566
S'EG10642'
p2567
aa(lp2568
S'EG10638'
p2569
aa(lp2570
S'EG10639'
p2571
aS'EG10641'
p2572
aa(lp2573
g2571
ag2572
aS'EG10640'
p2574
aa(lp2575
g2571
aa(lp2576
g2572
aa(lp2577
S'G0-9609'
p2578
aS'EG11016'
p2579
aS'EG30108'
p2580
aS'EG30106'
p2581
aS'EG11819'
p2582
aS'EG12119'
p2583
aa(lp2584
g2580
ag2581
ag2582
ag2583
aa(lp2585
g2580
ag2581
aa(lp2586
g2580
aa(lp2587
g2581
ag2582
aa(lp2588
g2581
ag2582
ag2583
aa(lp2589
g2582
ag2583
aa(lp2590
g2582
aa(lp2591
g2583
aa(lp2592
S'EG12120'
p2593
aS'EG12121'
p2594
aa(lp2595
g2593
ag2594
aS'EG11319'
p2596
aa(lp2597
g2593
aa(lp2598
g2594
aa(lp2599
g2594
ag2596
aa(lp2600
g2596
aa(lp2601
S'EG10457'
p2602
aa(lp2603
S'EG10994'
p2604
aa(lp2605
g570
aa(lp2606
S'EG10031'
p2607
aa(lp2608
S'EG10674'
p2609
aS'EG10675'
p2610
aa(lp2611
g2609
aa(lp2612
g2609
ag2610
aS'EG10676'
p2613
aa(lp2614
g2610
ag2613
aS'EG10677'
p2615
aa(lp2616
g2610
ag2613
aa(lp2617
g2615
aa(lp2618
S'EG10678'
p2619
aa(lp2620
S'G6633'
p2621
aS'EG11608'
p2622
aa(lp2623
g2621
aa(lp2624
g2622
aa(lp2625
S'G0-8891'
p2626
aa(lp2627
S'EG11607'
p2628
aa(lp2629
S'EG11012'
p2630
aa(lp2631
S'EG11121'
p2632
aa(lp2633
g2632
aS'EG11122'
p2634
aS'EG11123'
p2635
aa(lp2636
g2634
ag2635
aa(lp2637
g2634
aa(lp2638
g2635
aa(lp2639
S'EG11124'
p2640
aa(lp2641
S'EG11024'
p2642
aS'EG11025'
p2643
aa(lp2644
g2642
aa(lp2645
g2642
ag2643
aS'EG11026'
p2646
aa(lp2647
g2643
aa(lp2648
g2643
ag2646
aa(lp2649
g2646
aS'EG11027'
p2650
aa(lp2651
g2646
aa(lp2652
g2650
aa(lp2653
g2650
aS'EG11028'
p2654
aa(lp2655
g2650
ag2654
aS'EG11274'
p2656
aa(lp2657
g2654
aa(lp2658
g2654
ag2656
aa(lp2659
g2656
aa(lp2660
S'G6634'
p2661
aa(lp2662
g2661
aS'G6635'
p2663
aa(lp2664
g2663
aa(lp2665
S'EG12433'
p2666
aa(lp2667
S'EG10130'
p2668
aS'EG11759'
p2669
aa(lp2670
g2669
aa(lp2671
S'EG10956'
p2672
aa(lp2673
g2672
aS'EG12868'
p2674
aa(lp2675
g2674
aa(lp2676
S'EG11013'
p2677
aa(lp2678
S'EG10184'
p2679
aa(lp2680
S'G0-10512'
p2681
aS'G0-10513'
p2682
aa(lp2683
g2681
aa(lp2684
S'EG11325'
p2685
aa(lp2686
g2685
aS'EG11331'
p2687
aa(lp2688
g2687
aa(lp2689
S'EG10705'
p2690
aa(lp2691
g2690
aS'G6637'
p2692
aa(lp2693
g2692
aa(lp2694
g2692
aS'EG12691'
p2695
aa(lp2696
S'EG10809'
p2697
aS'EG11128'
p2698
aa(lp2699
g2697
aa(lp2700
g2697
ag2698
aS'EG10679'
p2701
aa(lp2702
g2698
aa(lp2703
S'G6638'
p2704
aa(lp2705
g2704
aS'G0-10591'
p2706
aa(lp2707
g2706
aS'G6639'
p2708
aa(lp2709
g2706
aa(lp2710
g2708
aa(lp2711
S'G0-16673'
p2712
aS'EG11620'
p2713
aS'G6640'
p2714
aa(lp2715
g2712
aa(lp2716
g2712
ag2713
aa(lp2717
g2713
aa(lp2718
g2713
ag2714
aa(lp2719
g2714
aS'EG11528'
p2720
aa(lp2721
g2714
aa(lp2722
g2720
aa(lp2723
S'G6641'
p2724
aa(lp2725
S'EG12305'
p2726
aS'EG12304'
p2727
aa(lp2728
g2727
aa(lp2729
S'G2000'
p2730
aa(lp2731
g2730
aS'G2001'
p2732
aS'G2002'
p2733
aa(lp2734
g2732
ag2733
aS'G6642'
p2735
aa(lp2736
g2732
aa(lp2737
g2732
ag2733
aa(lp2738
g2733
aa(lp2739
g2733
ag2735
aa(lp2740
g2735
aa(lp2741
S'G6643'
p2742
aS'G6644'
p2743
aa(lp2744
g2743
aa(lp2745
S'G6645'
p2746
aS'EG12431'
p2747
aa(lp2748
g2746
aa(lp2749
g2747
aS'EG10036'
p2750
aa(lp2751
g2747
aa(lp2752
g2750
aa(lp2753
g2750
aS'EG11822'
p2754
aa(lp2755
S'G6646'
p2756
aS'EG12344'
p2757
aa(lp2758
g2757
aa(lp2759
S'EG10776'
p2760
aS'EG10777'
p2761
aS'EG10778'
p2762
aa(lp2763
g2760
aa(lp2764
g2760
ag2761
ag2762
aS'EG10779'
p2765
aa(lp2766
g2760
ag2761
ag2762
ag2765
aS'EG10780'
p2767
aa(lp2768
g2760
ag2761
aa(lp2769
g2761
ag2762
ag2765
aa(lp2770
g2761
ag2762
ag2765
ag2767
aa(lp2771
g2761
ag2762
aa(lp2772
g2761
aa(lp2773
g2765
ag2767
aa(lp2774
g2767
aa(lp2775
S'G6651'
p2776
aS'G6652'
p2777
aS'G6653'
p2778
aa(lp2779
S'G6657'
p2780
aa(lp2781
S'G6658'
p2782
aa(lp2783
S'G6659'
p2784
aS'EG12870'
p2785
aS'EG11042'
p2786
aa(lp2787
g2784
ag2785
aa(lp2788
g2784
aa(lp2789
g2786
aS'G6660'
p2790
aS'G6661'
p2791
aa(lp2792
g2786
aa(lp2793
g2786
ag2790
aa(lp2794
g2790
aa(lp2795
g2791
aa(lp2796
S'G6662'
p2797
aa(lp2798
g2797
aS'G0-10446'
p2799
aS'G0-10645'
p2800
aS'G6663'
p2801
aa(lp2802
g2799
ag2800
aa(lp2803
g2799
ag2800
ag2801
aa(lp2804
S'G6664'
p2805
aS'G6665'
p2806
aa(lp2807
g2805
aa(lp2808
g2806
aa(lp2809
S'G6666'
p2810
aa(lp2811
S'G6668'
p2812
aS'EG11246'
p2813
aa(lp2814
g2812
ag2813
aS'EG10325'
p2815
aa(lp2816
g2812
aa(lp2817
g2813
aa(lp2818
g2813
ag2815
aa(lp2819
g2815
aa(lp2820
S'EG10668'
p2821
aa(lp2822
S'G6669'
p2823
aS'G6670'
p2824
aa(lp2825
g2824
aa(lp2826
S'G6671'
p2827
aS'G0-8899'
p2828
aa(lp2829
g2827
aa(lp2830
S'G6672'
p2831
aa(lp2832
S'G6674'
p2833
aa(lp2834
S'EG10210'
p2835
aa(lp2836
S'G6675'
p2837
aa(lp2838
S'EG11899'
p2839
aS'EG10827'
p2840
aa(lp2841
g2839
aa(lp2842
S'G6681'
p2843
aS'G6682'
p2844
aS'G6683'
p2845
aS'G6684'
p2846
aS'G6685'
p2847
aa(lp2848
g2843
ag2844
aa(lp2849
g2844
ag2845
ag2846
ag2847
aa(lp2850
g2844
ag2845
aa(lp2851
S'G6686'
p2852
aS'G0-10449'
p2853
aa(lp2854
g2853
aa(lp2855
S'EG11020'
p2856
aS'G6688'
p2857
aa(lp2858
S'G6696'
p2859
aa(lp2860
S'G0-16659'
p2861
aS'G6699'
p2862
aa(lp2863
g2861
aa(lp2864
g2862
aa(lp2865
S'G0-8901'
p2866
aS'G6701'
p2867
aa(lp2868
g2867
aa(lp2869
S'G0-10450'
p2870
aa(lp2871
g2870
aS'G6702'
p2872
aS'G592'
p2873
aa(lp2874
g2872
ag2873
aa(lp2875
g2873
aa(lp2876
S'G6703'
p2877
aS'G6704'
p2878
aS'G6705'
p2879
aa(lp2880
g2878
ag2879
aa(lp2881
S'G6706'
p2882
aa(lp2883
S'G7961'
p2884
aa(lp2885
S'G6709'
p2886
aa(lp2887
g2886
aS'G6710'
p2888
aS'G6711'
p2889
aS'G6712'
p2890
aa(lp2891
g2886
ag2888
aa(lp2892
g2889
ag2890
aS'G6713'
p2893
aa(lp2894
S'G6717'
p2895
aS'G6718'
p2896
aS'G6719'
p2897
aa(lp2898
g2895
aa(lp2899
g2897
aa(lp2900
g2897
aS'G6720'
p2901
aa(lp2902
g2897
ag2901
aS'G6721'
p2903
aa(lp2904
g2901
aa(lp2905
g2901
ag2903
aa(lp2906
S'G6725'
p2907
aa(lp2908
S'EG11309'
p2909
aa(lp2910
S'G6730'
p2911
aa(lp2912
S'G6731'
p2913
aa(lp2914
S'G6732'
p2915
aa(lp2916
S'EG12110'
p2917
aa(lp2918
g2917
aS'EG10035'
p2919
aa(lp2920
g2919
aa(lp2921
S'G8205'
p2922
aa(lp2923
S'EG10172'
p2924
aS'G0-10592'
p2925
aS'EG11219'
p2926
aS'G0-9610'
p2927
aa(lp2928
g2924
ag2925
ag2926
aa(lp2929
g2924
ag2925
ag2926
ag2927
aS'G6736'
p2930
aS'G0-9611'
p2931
aa(lp2932
g2924
aa(lp2933
g2924
ag2925
ag2926
ag2927
ag2930
aa(lp2934
g2924
ag2925
aa(lp2935
g2925
ag2926
ag2927
ag2930
ag2931
aa(lp2936
g2925
aa(lp2937
g2926
ag2927
ag2930
aa(lp2938
g2926
ag2927
ag2930
ag2931
aa(lp2939
g2927
ag2930
ag2931
aa(lp2940
S'G6737'
p2941
aa(lp2942
S'EG12859'
p2943
aS'EG12865'
p2944
aS'EG10853'
p2945
aa(lp2946
g2943
aa(lp2947
g2943
ag2944
aa(lp2948
g2944
aa(lp2949
g2944
ag2945
aa(lp2950
g2945
aa(lp2951
S'G6741'
p2952
aa(lp2953
S'EG11883'
p2954
aS'EG11884'
p2955
aa(lp2956
g2954
aa(lp2957
g2955
aa(lp2958
S'G6742'
p2959
aS'G0-10557'
p2960
aa(lp2961
g2959
ag2960
aS'G6743'
p2962
aa(lp2963
g2959
aa(lp2964
g2962
aa(lp2965
S'G6744'
p2966
aa(lp2967
S'G6745'
p2968
aa(lp2969
g2968
aS'G6746'
p2970
aa(lp2971
g2970
aa(lp2972
g2970
aS'G6747'
p2973
aa(lp2974
g2973
aa(lp2975
S'G0-10451'
p2976
aa(lp2977
g2976
aS'G6749'
p2978
aa(lp2979
g2976
ag2978
aS'G6750'
p2980
aa(lp2981
g2980
aa(lp2982
S'G6756'
p2983
aS'G6757'
p2984
aa(lp2985
g2983
aa(lp2986
g2983
ag2984
aS'G6758'
p2987
aS'G6759'
p2988
aa(lp2989
g2984
aa(lp2990
g2987
ag2988
aa(lp2991
g2988
aa(lp2992
S'G6760'
p2993
aa(lp2994
S'G6761'
p2995
aa(lp2996
S'G6762'
p2997
aa(lp2998
S'G6763'
p2999
aa(lp3000
S'G6764'
p3001
aa(lp3002
S'G6765'
p3003
aa(lp3004
S'EG11761'
p3005
aa(lp3006
S'G6770'
p3007
aa(lp3008
S'EG11825'
p3009
aa(lp3010
S'EG10644'
p3011
aa(lp3012
S'EG10645'
p3013
aS'EG10647'
p3014
aa(lp3015
S'EG12153'
p3016
aa(lp3017
S'EG12713'
p3018
aa(lp3019
S'EG11227'
p3020
aa(lp3021
S'EG11228'
p3022
aa(lp3023
S'EG11229'
p3024
aa(lp3025
S'G6774'
p3026
aa(lp3027
g3026
aS'G6775'
p3028
aS'EG10948'
p3029
aa(lp3030
g3028
aa(lp3031
g3028
ag3029
aa(lp3032
g3029
aa(lp3033
S'EG11508'
p3034
aa(lp3035
S'EG10680'
p3036
aa(lp3037
S'G6779'
p3038
aa(lp3039
S'G6784'
p3040
aa(lp3041
g3040
aS'G6785'
p3042
aa(lp3043
g3042
aa(lp3044
S'G6786'
p3045
aS'EG11490'
p3046
aa(lp3047
g3046
aa(lp3048
S'EG11744'
p3049
aa(lp3050
S'EG11742'
p3051
aa(lp3052
S'G6789'
p3053
aS'G6790'
p3054
aa(lp3055
g3054
aa(lp3056
S'G6791'
p3057
aa(lp3058
S'G6793'
p3059
aS'G6794'
p3060
aS'G6795'
p3061
aa(lp3062
S'G6796'
p3063
aS'EG10443'
p3064
aa(lp3065
g3063
ag3064
aS'EG10442'
p3066
aa(lp3067
g3064
ag3066
aa(lp3068
g3066
aa(lp3069
S'G6798'
p3070
aS'G6799'
p3071
aa(lp3072
g3071
aa(lp3073
S'G6800'
p3074
aS'G6801'
p3075
aa(lp3076
S'G6805'
p3077
aS'G6806'
p3078
aa(lp3079
g3078
aa(lp3080
S'G6807'
p3081
aa(lp3082
S'EG11065'
p3083
aa(lp3084
S'G6809'
p3085
aS'G6810'
p3086
aS'G6811'
p3087
aa(lp3088
g3085
ag3086
aa(lp3089
g3086
ag3087
aa(lp3090
g3086
aa(lp3091
g3087
aa(lp3092
S'G6812'
p3093
aa(lp3094
S'EG11636'
p3095
aS'EG11637'
p3096
aa(lp3097
g3095
aa(lp3098
g3096
aa(lp3099
S'EG11435'
p3100
aS'EG11434'
p3101
aS'EG11599'
p3102
aa(lp3103
g3100
ag3101
aa(lp3104
g3100
ag3101
ag3102
aS'EG11639'
p3105
aa(lp3106
g3100
aa(lp3107
g3101
aa(lp3108
g3102
ag3105
aa(lp3109
g3102
aa(lp3110
g3105
aa(lp3111
S'G0-8892'
p3112
aa(lp3113
g3112
aS'G0-10671'
p3114
aa(lp3115
S'EG11643'
p3116
aa(lp3117
S'EG11645'
p3118
aa(lp3119
S'EG10212'
p3120
aa(lp3121
S'EG12345'
p3122
aa(lp3123
g3122
aS'G6814'
p3124
aa(lp3125
g3124
aS'G6815'
p3126
aa(lp3127
g3124
aa(lp3128
g3126
aa(lp3129
S'G6820'
p3130
aa(lp3131
S'G6823'
p3132
aa(lp3133
S'EG12203'
p3134
aa(lp3135
S'EG11129'
p3136
aS'EG11130'
p3137
aS'EG11131'
p3138
aS'EG10836'
p3139
aa(lp3140
g3137
ag3138
ag3139
aa(lp3141
g3137
ag3138
ag3139
aS'G6832'
p3142
aa(lp3143
g3138
ag3139
ag3142
aa(lp3144
g3138
ag3139
aa(lp3145
g3139
aa(lp3146
S'G6834'
p3147
aS'G6835'
p3148
aS'EG10228'
p3149
aa(lp3150
S'EG10226'
p3151
aS'EG11300'
p3152
aS'EG11301'
p3153
aS'EG11302'
p3154
aa(lp3155
g3151
aa(lp3156
g3152
ag3153
ag3154
aS'EG31115'
p3157
aa(lp3158
g3152
ag3153
ag3154
aa(lp3159
g3154
aa(lp3160
S'G6838'
p3161
aS'G6839'
p3162
aa(lp3163
g3162
aa(lp3164
S'G6840'
p3165
aa(lp3166
S'G6841'
p3167
aa(lp3168
g3167
aS'G6842'
p3169
aa(lp3170
g3169
aa(lp3171
g3169
aS'G6843'
p3172
aa(lp3173
g3172
aa(lp3174
S'G6844'
p3175
aa(lp3176
S'G6847'
p3177
aa(lp3178
S'G6848'
p3179
aa(lp3180
S'G6849'
p3181
aa(lp3182
S'G6851'
p3183
aa(lp3184
S'G6852'
p3185
aa(lp3186
S'G6853'
p3187
aa(lp3188
S'G6854'
p3189
aa(lp3190
S'G6855'
p3191
aa(lp3192
S'G0-10593'
p3193
aa(lp3194
S'G6856'
p3195
aa(lp3196
S'G6857'
p3197
aS'G6858'
p3198
aa(lp3199
g3198
aa(lp3200
S'EG10745'
p3201
aa(lp3202
g3201
aS'EG10744'
p3203
aa(lp3204
g3203
aa(lp3205
S'G6860'
p3206
aa(lp3207
g3206
aS'G6861'
p3208
aS'G6862'
p3209
aa(lp3210
g3206
ag3208
aa(lp3211
g3208
ag3209
aa(lp3212
g3208
aa(lp3213
g3209
aa(lp3214
S'G6863'
p3215
aa(lp3216
S'G6864'
p3217
aS'EG11233'
p3218
aS'EG11038'
p3219
aa(lp3220
g3217
ag3218
aa(lp3221
g3217
aa(lp3222
g3219
aa(lp3223
S'EG10358'
p3224
aS'EG10356'
p3225
aa(lp3226
g3225
aa(lp3227
S'EG10566'
p3228
aa(lp3229
g3228
aS'G6865'
p3230
aa(lp3231
g3230
aa(lp3232
S'EG11055'
p3233
aa(lp3234
S'G6867'
p3235
aS'EG10425'
p3236
aa(lp3237
g3235
aa(lp3238
g3236
aS'EG10557'
p3239
aa(lp3240
g3236
aa(lp3241
g3239
aa(lp3242
S'EG10563'
p3243
aS'EG10564'
p3244
aa(lp3245
g3243
aa(lp3246
g3244
aa(lp3247
S'EG10030'
p3248
aa(lp3249
g3248
aS'G6868'
p3250
aa(lp3251
g3250
aa(lp3252
S'G0-9561'
p3253
aS'G6869'
p3254
aS'G6870'
p3255
aa(lp3256
g3253
aa(lp3257
g3253
ag3254
ag3255
aS'G6871'
p3258
aa(lp3259
g3253
ag3254
aa(lp3260
g3254
ag3255
ag3258
aa(lp3261
g3254
aa(lp3262
g3255
ag3258
aS'G6872'
p3263
aa(lp3264
g3255
aa(lp3265
g3258
aa(lp3266
g3258
ag3263
aa(lp3267
g3263
aa(lp3268
S'G6875'
p3269
aa(lp3270
g3269
aS'G6876'
p3271
aS'EG10662'
p3272
aa(lp3273
S'G6877'
p3274
aa(lp3275
S'G6878'
p3276
aa(lp3277
S'G6879'
p3278
aS'EG11043'
p3279
aS'EG11487'
p3280
aa(lp3281
g3278
ag3279
aa(lp3282
g3278
aa(lp3283
g3279
ag3280
aS'EG11488'
p3284
aa(lp3285
g3279
ag3280
aa(lp3286
g3279
aa(lp3287
g3280
ag3284
aS'G6880'
p3288
aa(lp3289
g3280
aa(lp3290
g3284
ag3288
aa(lp3291
g3288
aa(lp3292
S'G6881'
p3293
aa(lp3294
g3293
aS'G6882'
p3295
aa(lp3296
g3295
aa(lp3297
S'G6883'
p3298
aa(lp3299
g3298
aS'G6884'
p3300
aa(lp3301
g3298
ag3300
aS'G6885'
p3302
aa(lp3303
S'G6886'
p3304
aa(lp3305
g3304
aS'G6887'
p3306
aa(lp3307
g3306
aa(lp3308
S'G6888'
p3309
aa(lp3310
S'G6889'
p3311
aa(lp3312
g3311
aS'G6890'
p3313
aS'G6891'
p3314
aa(lp3315
g3311
ag3313
aa(lp3316
g3311
ag3313
ag3314
aS'EG11547'
p3317
aa(lp3318
g3313
aa(lp3319
g3313
ag3314
aa(lp3320
g3314
aa(lp3321
g3314
ag3317
aa(lp3322
g3317
aa(lp3323
S'EG12181'
p3324
aa(lp3325
S'G6892'
p3326
aa(lp3327
S'EG10954'
p3328
aS'G6893'
p3329
aa(lp3330
g3328
aa(lp3331
g3329
aa(lp3332
S'G0-10594'
p3333
aa(lp3334
S'EG10800'
p3335
aa(lp3336
S'EG12140'
p3337
aa(lp3338
S'EG12141'
p3339
aa(lp3340
S'EG11531'
p3341
aa(lp3342
S'EG11406'
p3343
aa(lp3344
S'EG12400'
p3345
aa(lp3346
S'G6894'
p3347
aa(lp3348
S'EG30111'
p3349
aS'EG30112'
p3350
aS'G6895'
p3351
aa(lp3352
g3351
aa(lp3353
S'G6898'
p3354
aa(lp3355
S'G6899'
p3356
aS'G6900'
p3357
aa(lp3358
g3357
aa(lp3359
S'G6903'
p3360
aa(lp3361
S'EG10804'
p3362
aa(lp3363
S'EG10544'
p3364
aa(lp3365
S'G6904'
p3366
aa(lp3367
S'G6905'
p3368
aS'G6906'
p3369
aS'G6907'
p3370
aS'G6908'
p3371
aa(lp3372
g3368
ag3369
ag3370
aa(lp3373
g3368
aa(lp3374
g3368
ag3369
aa(lp3375
g3369
aa(lp3376
g3369
ag3370
aa(lp3377
g3369
ag3370
ag3371
aa(lp3378
g3370
aa(lp3379
g3370
ag3371
aS'G6909'
p3380
aa(lp3381
g3370
ag3371
aa(lp3382
g3370
ag3371
ag3380
aS'EG11378'
p3383
aa(lp3384
g3371
ag3380
aa(lp3385
g3371
aa(lp3386
g3371
ag3380
ag3383
aa(lp3387
g3380
ag3383
aa(lp3388
g3380
aa(lp3389
g3383
aa(lp3390
S'G0-8876'
p3391
aS'G6911'
p3392
aa(lp3393
g3392
aS'G6912'
p3394
aS'G6913'
p3395
aa(lp3396
g3392
aa(lp3397
g3394
aa(lp3398
g3394
ag3395
aa(lp3399
g3395
aa(lp3400
S'G6914'
p3401
aa(lp3402
S'G6915'
p3403
aa(lp3404
S'G6917'
p3405
aS'EG11234'
p3406
aS'EG10076'
p3407
aa(lp3408
g3407
aa(lp3409
g3407
aS'EG12432'
p3410
aS'G6918'
p3411
aa(lp3412
g3407
ag3410
aa(lp3413
S'G6919'
p3414
aa(lp3415
S'G6921'
p3416
aS'G6922'
p3417
aS'G6923'
p3418
aa(lp3419
g3416
aa(lp3420
g3417
ag3418
aa(lp3421
g3418
aa(lp3422
S'EG10759'
p3423
aa(lp3424
S'EG11132'
p3425
aS'EG10080'
p3426
aa(lp3427
g3425
aa(lp3428
g3426
aa(lp3429
S'EG12391'
p3430
aS'G6924'
p3431
aa(lp3432
g3430
aa(lp3433
g3431
aa(lp3434
S'G6925'
p3435
aS'EG11133'
p3436
aa(lp3437
g3435
aa(lp3438
g3436
aS'EG10128'
p3439
aS'EG10129'
p3440
aa(lp3441
g3436
aa(lp3442
g3439
ag3440
aa(lp3443
g3439
aa(lp3444
g3439
ag3440
aS'EG10127'
p3445
aa(lp3446
g3440
aa(lp3447
g3440
ag3445
aa(lp3448
g3445
aa(lp3449
g3445
aS'EG10440'
p3450
aa(lp3451
g3450
aS'EG10710'
p3452
aS'EG10709'
p3453
aa(lp3454
g3450
ag3452
aa(lp3455
g3450
aa(lp3456
g3452
aa(lp3457
g3452
ag3453
aa(lp3458
g3453
aS'EG11272'
p3459
aS'EG10881'
p3460
aS'EG11231'
p3461
aa(lp3462
g3453
aa(lp3463
g3453
ag3459
aa(lp3464
g3459
ag3460
ag3461
aS'EG10506'
p3465
aa(lp3466
g3459
aa(lp3467
g3459
ag3460
ag3461
ag3465
aS'EG11001'
p3468
aa(lp3469
g3460
ag3461
ag3465
ag3468
aa(lp3470
g3460
ag3461
aa(lp3471
g3460
ag3461
ag3465
aa(lp3472
g3461
ag3465
ag3468
aa(lp3473
g3461
ag3465
aa(lp3474
g3461
aa(lp3475
g3465
ag3468
aa(lp3476
g3465
aa(lp3477
g3468
aa(lp3478
S'G0-10453'
p3479
aS'G6928'
p3480
aa(lp3481
g3480
aa(lp3482
S'EG10700'
p3483
aS'G6929'
p3484
aS'G6930'
p3485
aa(lp3486
g3483
ag3484
aa(lp3487
g3483
aa(lp3488
g3484
aa(lp3489
g3485
aa(lp3490
S'G6931'
p3491
aa(lp3492
S'G6932'
p3493
aa(lp3494
S'G6933'
p3495
aa(lp3496
S'G6934'
p3497
aS'G6935'
p3498
aa(lp3499
g3497
aa(lp3500
S'G6936'
p3501
aa(lp3502
S'EG10509'
p3503
aa(lp3504
S'EG12198'
p3505
aS'EG10144'
p3506
aS'EG10143'
p3507
aS'EG10142'
p3508
aa(lp3509
g3505
ag3506
ag3507
aa(lp3510
g3505
aa(lp3511
g3507
aa(lp3512
g3507
ag3508
aa(lp3513
g3508
aa(lp3514
S'EG10141'
p3515
aS'EG10140'
p3516
aa(lp3517
g3516
aa(lp3518
S'EG10044'
p3519
aa(lp3520
S'EG10663'
p3521
aS'G6937'
p3522
aa(lp3523
g3521
aa(lp3524
g3522
aa(lp3525
S'G6939'
p3526
aa(lp3527
S'G6940'
p3528
aa(lp3529
S'G6942'
p3530
aS'G6943'
p3531
aa(lp3532
g3530
aa(lp3533
g3531
aS'G6944'
p3534
aa(lp3535
g3534
aa(lp3536
S'EG11073'
p3537
aa(lp3538
S'G6945'
p3539
aS'G6946'
p3540
aS'G6947'
p3541
aa(lp3542
g3539
ag3540
ag3541
aS'G6948'
p3543
aa(lp3544
g3539
ag3540
aa(lp3545
g3539
aa(lp3546
g3540
aa(lp3547
g3541
ag3543
aS'G6949'
p3548
aa(lp3549
g3543
ag3548
aa(lp3550
g3543
aa(lp3551
S'G6951'
p3552
aa(lp3553
S'G6952'
p3554
aa(lp3555
S'G6953'
p3556
aa(lp3557
S'G6954'
p3558
aS'G6955'
p3559
aS'EG10372'
p3560
aa(lp3561
g3558
aa(lp3562
g3558
ag3559
aa(lp3563
g3559
aa(lp3564
g3560
aa(lp3565
S'EG11014'
p3566
aS'EG10943'
p3567
aa(lp3568
g3566
ag3567
aS'EG11134'
p3569
aa(lp3570
g3566
aa(lp3571
g3567
ag3569
aa(lp3572
g3567
aa(lp3573
g3569
aa(lp3574
S'EG10968'
p3575
aa(lp3576
g3575
aS'EG10045'
p3577
aa(lp3578
g3577
aa(lp3579
g3577
aS'EG11135'
p3580
aa(lp3581
g3580
aa(lp3582
S'G6957'
p3583
aa(lp3584
S'G6958'
p3585
aS'G6959'
p3586
aS'G6960'
p3587
aa(lp3588
g3585
aa(lp3589
g3587
aa(lp3590
S'G6963'
p3591
aa(lp3592
S'G6964'
p3593
aS'EG12394'
p3594
aa(lp3595
g3594
aa(lp3596
S'EG10367'
p3597
aa(lp3598
g3597
aS'G6966'
p3599
aa(lp3600
g3597
ag3599
aS'G6967'
p3601
aa(lp3602
g3599
aa(lp3603
g3601
aa(lp3604
S'G6968'
p3605
aa(lp3606
S'G6969'
p3607
aS'G6970'
p3608
aa(lp3609
g3607
aa(lp3610
S'G6972'
p3611
aa(lp3612
S'G6973'
p3613
aS'G6974'
p3614
aS'G6975'
p3615
aa(lp3616
g3613
ag3614
aa(lp3617
g3613
aa(lp3618
g3615
aa(lp3619
S'G6976'
p3620
aa(lp3621
S'G6977'
p3622
aa(lp3623
g3622
aS'G6978'
p3624
aa(lp3625
g3624
aa(lp3626
S'G6979'
p3627
aa(lp3628
S'G6980'
p3629
aS'G0-10649'
p3630
aS'G0-10648'
p3631
aa(lp3632
g3629
ag3630
aa(lp3633
g3629
aa(lp3634
S'G6981'
p3635
aa(lp3636
S'G6984'
p3637
aa(lp3638
S'G6985'
p3639
aa(lp3640
S'EG10858'
p3641
aa(lp3642
S'EG11530'
p3643
aa(lp3644
g3643
aS'G6990'
p3645
aa(lp3646
g3643
ag3645
aS'G6991'
p3647
aa(lp3648
g3645
aa(lp3649
g3645
ag3647
aS'G6992'
p3650
aa(lp3651
g3645
ag3647
aa(lp3652
g3647
aa(lp3653
g3647
ag3650
aa(lp3654
g3650
aa(lp3655
S'G6993'
p3656
aa(lp3657
g3656
aS'G6994'
p3658
aa(lp3659
g3658
aS'G6995'
p3660
aa(lp3661
g3658
ag3660
aS'EG10683'
p3662
aa(lp3663
g3658
aa(lp3664
g3660
aa(lp3665
g3662
aS'EG12693'
p3666
aS'EG10930'
p3667
aa(lp3668
g3662
ag3666
aa(lp3669
g3666
aa(lp3670
g3666
ag3667
aa(lp3671
g3667
aS'G6996'
p3672
aa(lp3673
g3667
aa(lp3674
S'G6997'
p3675
aa(lp3676
S'EG10567'
p3677
aS'EG10568'
p3678
aS'EG10569'
p3679
aS'G6998'
p3680
aa(lp3681
g3677
aa(lp3682
g3677
ag3678
aa(lp3683
g3677
ag3678
ag3679
aa(lp3684
g3678
ag3679
ag3680
aa(lp3685
g3678
ag3679
aa(lp3686
g3678
aa(lp3687
g3679
aa(lp3688
S'G6999'
p3689
aa(lp3690
S'EG12207'
p3691
aa(lp3692
S'EG12204'
p3693
aS'G7000'
p3694
aS'G7001'
p3695
aa(lp3696
g3693
ag3694
aa(lp3697
g3694
aa(lp3698
g3694
ag3695
aa(lp3699
g3695
aa(lp3700
g3695
aS'G7002'
p3701
aa(lp3702
g3701
aa(lp3703
S'G0-10454'
p3704
aa(lp3705
S'G7003'
p3706
aa(lp3707
S'G7004'
p3708
aa(lp3709
S'EG10462'
p3710
aa(lp3711
S'EG10760'
p3712
aS'EG12866'
p3713
aa(lp3714
g3712
aa(lp3715
g3712
ag3713
aS'G7005'
p3716
aa(lp3717
g3713
ag3716
aa(lp3718
g3713
aa(lp3719
g3716
aa(lp3720
S'G7006'
p3721
aa(lp3722
S'G7007'
p3723
aa(lp3724
S'G7008'
p3725
aa(lp3726
g3725
aS'G7009'
p3727
aa(lp3728
g3727
aa(lp3729
S'G7010'
p3730
aa(lp3731
S'G7011'
p3732
aa(lp3733
g3732
aS'G0-8865'
p3734
aS'G0-8883'
p3735
aS'G7012'
p3736
aS'G7013'
p3737
aS'G7014'
p3738
aa(lp3739
g3734
ag3735
aa(lp3740
g3735
ag3736
ag3737
ag3738
aa(lp3741
g3736
aa(lp3742
g3736
ag3737
ag3738
aa(lp3743
g3737
aa(lp3744
g3737
ag3738
aa(lp3745
g3738
aa(lp3746
S'EG11505'
p3747
aS'G7015'
p3748
aS'G7016'
p3749
aa(lp3750
g3747
ag3748
aa(lp3751
g3747
aa(lp3752
g3748
aa(lp3753
g3749
aa(lp3754
S'EG11004'
p3755
aa(lp3756
S'EG11806'
p3757
aa(lp3758
S'EG11807'
p3759
aS'EG11808'
p3760
aa(lp3761
g3759
aa(lp3762
g3760
aa(lp3763
S'EG11809'
p3764
aa(lp3765
S'EG10256'
p3766
aS'EG10257'
p3767
aa(lp3768
g3766
aa(lp3769
g3767
aa(lp3770
S'EG11221'
p3771
aa(lp3772
S'EG12860'
p3773
aS'EG10803'
p3774
aa(lp3775
g3773
aa(lp3776
g3774
aa(lp3777
S'EG10614'
p3778
aa(lp3779
g3778
aS'EG10013'
p3780
aa(lp3781
g3780
aa(lp3782
g3780
aS'G7017'
p3783
aa(lp3784
g3783
aa(lp3785
S'G7018'
p3786
aa(lp3787
g3786
aS'EG12368'
p3788
aa(lp3789
g3788
aa(lp3790
S'RUVB'
p3791
aa(lp3792
g3791
aS'RUVA'
p3793
aa(lp3794
g3791
ag3793
aS'G0-10644'
p3795
aa(lp3796
g3793
aa(lp3797
S'EG10925'
p3798
aS'EG11137'
p3799
aS'EG11138'
p3800
aS'EG10097'
p3801
aa(lp3802
g3798
ag3799
ag3800
aa(lp3803
g3798
ag3799
aa(lp3804
g3799
ag3800
aa(lp3805
g3799
ag3800
ag3801
aa(lp3806
g3799
aa(lp3807
g3800
ag3801
aa(lp3808
g3800
aa(lp3809
g3801
aa(lp3810
S'EG12378'
p3811
aS'EG12379'
p3812
aa(lp3813
g3811
ag3812
aS'G7019'
p3814
aa(lp3815
g3811
aa(lp3816
g3811
ag3812
ag3814
aS'G7020'
p3817
aa(lp3818
g3811
ag3812
ag3814
ag3817
aS'G7021'
p3819
aa(lp3820
g3812
ag3814
ag3817
ag3819
aa(lp3821
g3814
ag3817
ag3819
aa(lp3822
g3814
aa(lp3823
g3814
ag3817
aa(lp3824
g3817
ag3819
aa(lp3825
g3817
aa(lp3826
g3819
aa(lp3827
S'G7023'
p3828
aa(lp3829
S'G7024'
p3830
aa(lp3831
g3830
aS'G7025'
p3832
aa(lp3833
g3832
aa(lp3834
S'EG10071'
p3835
aS'G7026'
p3836
aa(lp3837
g3835
aa(lp3838
S'G7028'
p3839
aa(lp3840
S'EG10988'
p3841
aa(lp3842
S'EG10601'
p3843
aa(lp3844
S'EG10319'
p3845
aS'EG10320'
p3846
aa(lp3847
g3846
aa(lp3848
S'G7031'
p3849
aa(lp3850
S'EG10059'
p3851
aa(lp3852
S'EG10058'
p3853
aa(lp3854
g3853
aS'EG10057'
p3855
aa(lp3856
g3855
aa(lp3857
S'G7033'
p3858
aa(lp3859
g3858
aS'G0-10455'
p3860
aa(lp3861
g3860
aa(lp3862
g3860
aS'G0-10653'
p3863
aa(lp3864
g3863
aa(lp3865
S'G7035'
p3866
aa(lp3867
S'EG10921'
p3868
aa(lp3869
S'G7036'
p3870
aa(lp3871
S'EG11041'
p3872
aa(lp3873
S'EG11139'
p3874
aa(lp3875
g3874
aS'EG30054'
p3876
aS'G7991'
p3877
aS'EG30039'
p3878
aa(lp3879
g3876
ag3877
ag3878
aS'EG10706'
p3880
aa(lp3881
g3876
ag3877
ag3878
aa(lp3882
g3877
ag3878
ag3880
aa(lp3883
g3877
ag3878
aa(lp3884
g3877
ag3878
ag3880
aS'EG11063'
p3885
aS'EG11140'
p3886
aa(lp3887
g3878
aa(lp3888
g3878
ag3880
aa(lp3889
g3880
aa(lp3890
g3885
aa(lp3891
g3885
ag3886
aa(lp3892
g3886
aa(lp3893
S'EG12861'
p3894
aa(lp3895
S'EG10935'
p3896
aS'EG12347'
p3897
aS'G7037'
p3898
aS'G7038'
p3899
aa(lp3900
g3896
aa(lp3901
g3896
ag3897
ag3898
ag3899
aS'G7039'
p3902
aa(lp3903
g3897
ag3898
ag3899
ag3902
aa(lp3904
g3897
aa(lp3905
g3897
ag3898
ag3899
aa(lp3906
g3897
ag3898
aa(lp3907
g3898
ag3899
ag3902
aa(lp3908
g3898
ag3899
aa(lp3909
g3898
aa(lp3910
g3899
aa(lp3911
g3899
ag3902
aa(lp3912
g3902
aa(lp3913
g3902
aS'EG11356'
p3914
aS'EG11355'
p3915
aa(lp3916
g3914
ag3915
aa(lp3917
g3914
aa(lp3918
g3915
aa(lp3919
S'EG10321'
p3920
aa(lp3921
S'EG10841'
p3922
aS'EG11388'
p3923
aS'EG11389'
p3924
aa(lp3925
g3922
ag3923
aa(lp3926
g3923
aa(lp3927
S'EG11659'
p3928
aa(lp3929
S'EG11660'
p3930
aS'EG11661'
p3931
aS'EG11662'
p3932
aS'G7040'
p3933
aa(lp3934
g3930
ag3931
ag3932
aa(lp3935
g3930
ag3931
aa(lp3936
g3930
aa(lp3937
g3931
aa(lp3938
g3932
ag3933
aa(lp3939
S'G7044'
p3940
aS'EG11346'
p3941
aa(lp3942
S'EG10322'
p3943
aS'EG10323'
p3944
aS'EG10324'
p3945
aa(lp3946
g3943
aa(lp3947
g3945
aa(lp3948
S'EG11976'
p3949
aa(lp3950
S'EG10820'
p3951
aa(lp3952
S'G7045'
p3953
aa(lp3954
S'G7048'
p3955
aa(lp3956
S'G7049'
p3957
aS'G7050'
p3958
aS'EG12709'
p3959
aa(lp3960
g3958
ag3959
aa(lp3961
g3958
aa(lp3962
g3959
aa(lp3963
S'EG11141'
p3964
aS'EG11068'
p3965
aS'EG10211'
p3966
aa(lp3967
g3964
aa(lp3968
g3965
ag3966
aa(lp3969
g3965
ag3966
aS'EG12710'
p3970
aa(lp3971
g3966
aa(lp3972
g3966
ag3970
aa(lp3973
g3970
aa(lp3974
S'G7055'
p3975
aa(lp3976
S'G7056'
p3977
aa(lp3978
S'G7058'
p3979
aS'G7059'
p3980
aS'G7060'
p3981
aS'G7061'
p3982
aa(lp3983
g3979
aa(lp3984
g3979
ag3980
ag3981
aa(lp3985
g3979
ag3980
aa(lp3986
g3980
ag3981
aa(lp3987
g3982
aa(lp3988
S'G7062'
p3989
aa(lp3990
S'EG30094'
p3991
aS'G7063'
p3992
aa(lp3993
g3991
aa(lp3994
g3991
ag3992
aS'EG30020'
p3995
aa(lp3996
g3992
ag3995
aa(lp3997
g3992
aa(lp3998
g3995
aa(lp3999
S'G7067'
p4000
aS'EG10039'
p4001
aa(lp4002
g4000
aa(lp4003
g4001
aa(lp4004
S'G7068'
p4005
aa(lp4006
S'G7069'
p4007
aa(lp4008
S'EG30021'
p4009
aa(lp4010
g4009
aS'G7071'
p4011
aa(lp4012
g4011
aa(lp4013
S'G7072'
p4014
aa(lp4015
S'EG30022'
p4016
aS'G7073'
p4017
aS'EG12151'
p4018
aS'EG12150'
p4019
aS'EG13238'
p4020
aa(lp4021
g4016
aa(lp4022
g4016
ag4017
aa(lp4023
g4017
ag4018
ag4019
ag4020
aa(lp4024
g4018
aa(lp4025
g4018
ag4019
aa(lp4026
g4018
ag4019
ag4020
aa(lp4027
g4019
ag4020
aa(lp4028
g4019
aa(lp4029
g4020
aa(lp4030
S'G0-16658'
p4031
aa(lp4032
S'G0-16657'
p4033
aS'G0-16656'
p4034
aa(lp4035
g4034
aa(lp4036
S'G7079'
p4037
aa(lp4038
S'G0-8905'
p4039
aS'G7080'
p4040
aa(lp4041
g4039
aa(lp4042
g4040
aa(lp4043
S'G7081'
p4044
aa(lp4045
S'G7082'
p4046
aS'G7083'
p4047
aa(lp4048
S'G7087'
p4049
aS'EG11891'
p4050
aa(lp4051
g4049
ag4050
aS'EG11892'
p4052
aa(lp4053
g4049
aa(lp4054
g4050
aa(lp4055
g4050
ag4052
aa(lp4056
g4052
aS'EG11893'
p4057
aa(lp4058
g4052
aa(lp4059
g4057
aa(lp4060
S'EG10926'
p4061
aa(lp4062
S'EG11894'
p4063
aa(lp4064
g4063
aS'EG11895'
p4065
aa(lp4066
g4065
aa(lp4067
S'EG11896'
p4068
aS'G0-10643'
p4069
aa(lp4070
g4069
aa(lp4071
S'G7088'
p4072
aS'G7089'
p4073
aS'G0-9121'
p4074
aS'EG12844'
p4075
aa(lp4076
g4072
ag4073
aa(lp4077
g4073
ag4074
ag4075
aa(lp4078
g4073
aa(lp4079
g4074
aa(lp4080
g4074
ag4075
aa(lp4081
g4075
aa(lp4082
S'EG11269'
p4083
aa(lp4084
g4083
aS'EG10449'
p4085
aS'EG10447'
p4086
aS'EG10446'
p4087
aa(lp4088
g4083
ag4085
ag4086
aa(lp4089
g4085
ag4086
ag4087
aa(lp4090
g4085
aa(lp4091
g4085
ag4086
aa(lp4092
g4086
ag4087
aa(lp4093
g4086
aa(lp4094
g4086
ag4087
aS'EG10445'
p4095
aS'EG10450'
p4096
aa(lp4097
g4087
ag4095
ag4096
aa(lp4098
g4087
ag4095
ag4096
aS'EG10444'
p4099
aa(lp4100
g4087
ag4095
aa(lp4101
g4095
ag4096
ag4099
aS'EG10448'
p4102
aa(lp4103
g4095
ag4096
aa(lp4104
g4095
ag4096
ag4099
ag4102
aS'EG10451'
p4105
aa(lp4106
g4095
ag4096
ag4099
aa(lp4107
g4095
aa(lp4108
g4096
ag4099
ag4102
aa(lp4109
g4096
ag4099
aa(lp4110
g4096
ag4099
ag4102
ag4105
aa(lp4111
g4099
ag4102
ag4105
aa(lp4112
g4099
ag4102
aa(lp4113
g4105
aa(lp4114
S'G7090'
p4115
aa(lp4116
S'G7091'
p4117
aS'EG10411'
p4118
aa(lp4119
g4117
aa(lp4120
g4118
aa(lp4121
S'EG11986'
p4122
aS'G7092'
p4123
aS'EG11985'
p4124
aa(lp4125
g4122
ag4123
aa(lp4126
g4123
ag4124
aa(lp4127
g4123
ag4124
aS'EG11984'
p4128
aa(lp4129
g4124
aa(lp4130
g4124
ag4128
aa(lp4131
g4124
ag4128
aS'EG11983'
p4132
aa(lp4133
g4128
ag4132
aS'EG11982'
p4134
aa(lp4135
g4128
aa(lp4136
g4128
ag4132
aa(lp4137
g4132
aa(lp4138
g4132
ag4134
aa(lp4139
g4132
ag4134
aS'EG11981'
p4140
aa(lp4141
g4134
aa(lp4142
g4134
ag4140
aa(lp4143
g4140
aa(lp4144
g4140
aS'EG11980'
p4145
aS'EG11979'
p4146
aS'EG11978'
p4147
aa(lp4148
g4140
ag4145
ag4146
aa(lp4149
g4145
aa(lp4150
g4145
ag4146
ag4147
aa(lp4151
g4145
ag4146
aa(lp4152
g4146
ag4147
aa(lp4153
g4146
ag4147
aS'EG12411'
p4154
aS'EG12412'
p4155
aa(lp4156
g4146
ag4147
ag4154
aa(lp4157
g4146
aa(lp4158
g4147
aa(lp4159
g4147
ag4154
ag4155
aa(lp4160
g4147
ag4154
aa(lp4161
g4154
ag4155
aa(lp4162
g4154
aa(lp4163
g4154
ag4155
aS'G7093'
p4164
aa(lp4165
g4155
ag4164
aa(lp4166
g4155
aa(lp4167
g4164
aa(lp4168
S'G7095'
p4169
aS'G7096'
p4170
aa(lp4171
g4170
aa(lp4172
S'EG10162'
p4173
aa(lp4174
S'EG10161'
p4175
aa(lp4176
S'G7105'
p4177
aS'G7106'
p4178
aa(lp4179
S'G7108'
p4180
aa(lp4181
S'EG11361'
p4182
aS'EG11418'
p4183
aa(lp4184
g4182
ag4183
aS'EG11701'
p4185
aa(lp4186
g4183
ag4185
aa(lp4187
g4183
aa(lp4188
g4185
aa(lp4189
S'EG12396'
p4190
aa(lp4191
S'EG11222'
p4192
aa(lp4193
S'EG12200'
p4194
aa(lp4195
S'G0-10632'
p4196
aS'G7113'
p4197
aa(lp4198
g4197
aa(lp4199
S'G7114'
p4200
aa(lp4201
S'EG11617'
p4202
aS'EG11618'
p4203
aa(lp4204
g4203
aS'G7117'
p4205
aa(lp4206
g4203
aa(lp4207
S'G7118'
p4208
aS'G0-8878'
p4209
aa(lp4210
g4208
aa(lp4211
g4209
aa(lp4212
S'G7119'
p4213
aa(lp4214
S'G7120'
p4215
aS'G7122'
p4216
aa(lp4217
S'G7123'
p4218
aa(lp4219
S'EG12417'
p4220
aa(lp4221
g4220
aS'EG12416'
p4222
aa(lp4223
g4220
ag4222
aS'EG12415'
p4224
aa(lp4225
g4220
ag4222
ag4224
aS'EG12414'
p4226
aS'G7128'
p4227
aa(lp4228
g4220
ag4222
ag4224
ag4226
aa(lp4229
g4222
ag4224
ag4226
ag4227
aa(lp4230
g4222
ag4224
ag4226
ag4227
aS'EG12419'
p4231
aa(lp4232
g4222
aa(lp4233
g4222
ag4224
ag4226
aa(lp4234
g4222
ag4224
aa(lp4235
g4224
ag4226
aa(lp4236
g4224
ag4226
ag4227
aa(lp4237
g4224
ag4226
ag4227
ag4231
aa(lp4238
g4226
ag4227
aa(lp4239
g4226
aa(lp4240
g4226
ag4227
ag4231
aa(lp4241
g4227
aa(lp4242
g4227
ag4231
aa(lp4243
g4231
aa(lp4244
S'G7129'
p4245
aa(lp4246
S'G7130'
p4247
aS'G7131'
p4248
aa(lp4249
g4248
aS'G7132'
p4250
aa(lp4251
g4248
aa(lp4252
S'G7133'
p4253
aS'G7134'
p4254
aS'G7135'
p4255
aS'M007'
p4256
aa(lp4257
g4253
aa(lp4258
g4254
aa(lp4259
g4254
ag4255
ag4256
aa(lp4260
g4255
aa(lp4261
g4255
ag4256
aa(lp4262
g4255
ag4256
aS'G7137'
p4263
aa(lp4264
g4256
ag4263
aa(lp4265
g4256
aa(lp4266
g4263
aa(lp4267
S'G7138'
p4268
aa(lp4269
g4268
aS'G7139'
p4270
aa(lp4271
g4270
aa(lp4272
S'EG11989'
p4273
aS'EG11990'
p4274
aa(lp4275
g4274
aa(lp4276
S'EG11991'
p4277
aS'EG10611'
p4278
aa(lp4279
g4278
aa(lp4280
S'EG10586'
p4281
aa(lp4282
S'EG12002'
p4283
aa(lp4284
S'EG12005'
p4285
aS'EG12006'
p4286
aa(lp4287
g4285
ag4286
aS'EG12007'
p4288
aa(lp4289
g4285
aa(lp4290
g4286
ag4288
aa(lp4291
g4286
aa(lp4292
g4288
aa(lp4293
S'G0-10459'
p4294
aa(lp4295
S'EG12010'
p4296
aS'EG12011'
p4297
aS'EG12012'
p4298
aa(lp4299
g4297
ag4298
aa(lp4300
g4298
aa(lp4301
S'EG12013'
p4302
aa(lp4303
S'EG10231'
p4304
aa(lp4305
S'EG12015'
p4306
aa(lp4307
S'EG12017'
p4308
aa(lp4309
S'EG12019'
p4310
aa(lp4311
S'G0-10652'
p4312
aS'EG12022'
p4313
aa(lp4314
g4313
aa(lp4315
S'EG12023'
p4316
aS'EG12024'
p4317
aS'EG10137'
p4318
aa(lp4319
g4316
ag4317
aa(lp4320
g4316
aa(lp4321
g4317
aa(lp4322
g4318
aa(lp4323
S'EG12025'
p4324
aa(lp4325
S'G7144'
p4326
aa(lp4327
S'G7145'
p4328
aa(lp4329
g4328
aS'EG11289'
p4330
aa(lp4331
S'EG10594'
p4332
aS'EG10592'
p4333
aa(lp4334
g4332
ag4333
aS'EG10593'
p4335
aa(lp4336
g4333
ag4335
aa(lp4337
g4333
aa(lp4338
g4335
aa(lp4339
S'EG10365'
p4340
aa(lp4341
S'EG11290'
p4342
aS'EG11375'
p4343
aa(lp4344
g4342
aa(lp4345
g4343
aa(lp4346
S'EG12026'
p4347
aS'EG10155'
p4348
aa(lp4349
g4347
aa(lp4350
g4348
aa(lp4351
S'EG11337'
p4352
aS'EG12105'
p4353
aa(lp4354
g4352
aa(lp4355
g4353
aa(lp4356
S'EG12027'
p4357
aa(lp4358
S'EG10651'
p4359
aa(lp4360
g4359
aS'EG12028'
p4361
aa(lp4362
S'EG12032'
p4363
aS'EG12033'
p4364
aS'EG11646'
p4365
aa(lp4366
g4363
ag4364
aa(lp4367
g4364
ag4365
aa(lp4368
g4365
aa(lp4369
S'EG10336'
p4370
aS'EG10337'
p4371
aS'G7990'
p4372
aa(lp4373
g4370
ag4371
aa(lp4374
g4371
ag4372
aa(lp4375
g4371
aa(lp4376
g4372
aa(lp4377
S'EG12034'
p4378
aa(lp4379
g4378
aS'G0-10511'
p4380
aa(lp4381
g4380
aS'EG12035'
p4382
aa(lp4383
g4380
aa(lp4384
g4382
aa(lp4385
g4382
aS'EG12036'
p4386
aa(lp4387
g4386
aa(lp4388
S'EG12104'
p4389
aa(lp4390
g4389
aS'G7146'
p4391
aa(lp4392
g4391
aa(lp4393
S'G7147'
p4394
aa(lp4395
S'EG12041'
p4396
aa(lp4397
S'EG12042'
p4398
aa(lp4399
S'EG11419'
p4400
aa(lp4401
g4400
aS'EG12044'
p4402
aa(lp4403
g4402
aa(lp4404
S'EG12045'
p4405
aa(lp4406
S'EG10885'
p4407
aa(lp4408
S'EG12048'
p4409
aS'EG12043'
p4410
aa(lp4411
g4409
aa(lp4412
g4410
aS'EG12049'
p4413
aa(lp4414
g4410
aa(lp4415
g4410
ag4413
aS'EG30067'
p4416
aa(lp4417
g4416
aa(lp4418
S'EG11527'
p4419
aa(lp4420
S'EG12054'
p4421
aa(lp4422
g4421
aS'EG12055'
p4423
aS'EG12169'
p4424
aS'EG12057'
p4425
aa(lp4426
g4421
ag4423
ag4424
aa(lp4427
g4423
ag4424
ag4425
aa(lp4428
g4423
ag4424
aa(lp4429
S'EG12059'
p4430
aa(lp4431
S'EG12061'
p4432
aS'EG12062'
p4433
aS'EG12064'
p4434
aa(lp4435
g4433
ag4434
aa(lp4436
g4433
ag4434
aS'EG12067'
p4437
aa(lp4438
g4434
aa(lp4439
g4434
ag4437
aa(lp4440
g4434
ag4437
aS'EG12143'
p4441
aa(lp4442
g4437
ag4441
aa(lp4443
g4437
ag4441
aS'EG12068'
p4444
aa(lp4445
g4441
aa(lp4446
g4441
ag4444
aa(lp4447
g4444
aa(lp4448
S'EG10255'
p4449
aa(lp4450
S'EG12069'
p4451
aa(lp4452
S'EG12070'
p4453
aa(lp4454
S'EG10037'
p4455
aS'EG10029'
p4456
aa(lp4457
g4456
aS'EG12073'
p4458
aS'EG10670'
p4459
aa(lp4460
g4456
ag4458
aa(lp4461
g4458
aa(lp4462
g4459
aS'EG30063'
p4463
aa(lp4464
g4459
aa(lp4465
g4463
aa(lp4466
S'EG12385'
p4467
aa(lp4468
g4467
aS'EG10821'
p4469
aa(lp4470
g4469
aa(lp4471
S'EG11668'
p4472
aa(lp4473
S'G7156'
p4474
aa(lp4475
S'EG10423'
p4476
aa(lp4477
S'EG11143'
p4478
aa(lp4479
S'EG10660'
p4480
aS'EG10661'
p4481
aa(lp4482
g4480
aa(lp4483
g4480
ag4481
aS'EG12360'
p4484
aa(lp4485
g4481
aa(lp4486
g4481
ag4484
aa(lp4487
S'EG11422'
p4488
aS'EG12881'
p4489
aS'EG10399'
p4490
aS'EG10401'
p4491
aa(lp4492
g4488
aa(lp4493
g4489
ag4490
ag4491
aa(lp4494
g4489
ag4490
aa(lp4495
g4490
aa(lp4496
g4490
ag4491
aa(lp4497
g4491
aa(lp4498
S'EG10391'
p4499
aS'EG10392'
p4500
aS'EG10393'
p4501
aa(lp4502
g4499
ag4500
aa(lp4503
g4499
aa(lp4504
g4500
ag4501
aa(lp4505
g4500
aa(lp4506
g4501
aa(lp4507
S'EG12323'
p4508
aa(lp4509
S'G0-10561'
p4510
aa(lp4511
S'G7162'
p4512
aa(lp4513
S'G7163'
p4514
aa(lp4515
S'G7164'
p4516
aa(lp4517
S'G7165'
p4518
aa(lp4519
S'G7166'
p4520
aS'G7167'
p4521
aa(lp4522
g4520
aa(lp4523
S'G7168'
p4524
aS'G7169'
p4525
aa(lp4526
g4525
aa(lp4527
S'G0-10460'
p4528
aS'G7171'
p4529
aS'G7172'
p4530
aa(lp4531
g4528
aa(lp4532
g4529
ag4530
aa(lp4533
g4530
aa(lp4534
S'EG12437'
p4535
aS'EG11532'
p4536
aS'EG11368'
p4537
aa(lp4538
g4535
ag4536
aa(lp4539
g4536
ag4537
aa(lp4540
g4536
aa(lp4541
g4536
ag4537
aS'EG12438'
p4542
aa(lp4543
g4537
ag4542
aa(lp4544
g4537
ag4542
aS'EG10579'
p4545
aa(lp4546
g4537
aa(lp4547
g4542
ag4545
aa(lp4548
g4542
aa(lp4549
g4542
ag4545
aS'EG12362'
p4550
aa(lp4551
g4545
aa(lp4552
g4545
ag4550
aa(lp4553
g4550
aS'G7173'
p4554
aa(lp4555
g4550
aa(lp4556
g4550
ag4554
aS'G7174'
p4557
aa(lp4558
g4554
aa(lp4559
g4554
ag4557
aa(lp4560
g4557
aa(lp4561
S'G7175'
p4562
aa(lp4563
S'G7179'
p4564
aa(lp4565
S'G7182'
p4566
aa(lp4567
S'EG12093'
p4568
aS'EG11773'
p4569
aa(lp4570
g4568
aa(lp4571
g4569
aa(lp4572
g4569
aS'EG12092'
p4573
aa(lp4574
g4573
aa(lp4575
g4573
aS'EG12091'
p4576
aS'EG12090'
p4577
aS'EG12089'
p4578
aa(lp4579
g4573
ag4576
ag4577
aa(lp4580
g4573
ag4576
aa(lp4581
g4576
ag4577
ag4578
aS'EG12088'
p4582
aa(lp4583
g4576
aa(lp4584
g4576
ag4577
ag4578
aa(lp4585
g4578
ag4582
aa(lp4586
g4578
aa(lp4587
g4582
aS'EG12087'
p4588
aa(lp4589
g4582
aa(lp4590
g4588
aa(lp4591
S'EG11774'
p4592
aS'EG12086'
p4593
aS'EG12084'
p4594
aa(lp4595
g4592
aa(lp4596
g4592
ag4593
aa(lp4597
g4593
ag4594
aS'EG12083'
p4598
aa(lp4599
g4593
ag4594
ag4598
aS'EG12082'
p4600
aa(lp4601
g4593
ag4594
aa(lp4602
g4593
aa(lp4603
g4594
ag4598
aa(lp4604
g4594
ag4598
ag4600
aa(lp4605
g4594
aa(lp4606
g4598
aa(lp4607
g4598
ag4600
aa(lp4608
g4600
aa(lp4609
S'EG12123'
p4610
aa(lp4611
S'G7184'
p4612
aS'G7185'
p4613
aa(lp4614
g4612
aa(lp4615
g4613
aa(lp4616
S'G7186'
p4617
aS'G7187'
p4618
aS'G7188'
p4619
aa(lp4620
g4617
aa(lp4621
g4618
ag4619
aS'G7189'
p4622
aa(lp4623
g4618
ag4619
aa(lp4624
g4619
aa(lp4625
g4619
ag4622
aa(lp4626
g4622
aa(lp4627
S'EG10027'
p4628
aS'EG20173'
p4629
aa(lp4630
g4628
aa(lp4631
g4629
aa(lp4632
S'G7190'
p4633
aa(lp4634
S'G7191'
p4635
aS'G7192'
p4636
aS'G7193'
p4637
aa(lp4638
g4635
aa(lp4639
g4635
ag4636
aa(lp4640
g4636
ag4637
aa(lp4641
g4636
aa(lp4642
g4637
aa(lp4643
S'G7194'
p4644
aS'G7195'
p4645
aa(lp4646
g4644
aa(lp4647
g4645
aa(lp4648
g4645
aS'G7196'
p4649
aa(lp4650
g4649
aa(lp4651
S'EG10452'
p4652
aa(lp4653
g4652
aS'EG10007'
p4654
aa(lp4655
g4652
ag4654
aS'EG12125'
p4656
aS'EG12124'
p4657
aS'EG10072'
p4658
aa(lp4659
g4652
ag4654
ag4656
ag4657
aa(lp4660
g4652
ag4654
ag4656
aa(lp4661
g4654
ag4656
ag4657
ag4658
aa(lp4662
g4654
ag4656
ag4657
aa(lp4663
g4656
aa(lp4664
g4656
ag4657
ag4658
aa(lp4665
g4656
ag4657
aa(lp4666
g4657
ag4658
aa(lp4667
g4657
ag4658
aS'EG11044'
p4668
aa(lp4669
g4657
aa(lp4670
g4658
aa(lp4671
g4668
aa(lp4672
g4668
aS'EG10794'
p4673
aS'EG10169'
p4674
aa(lp4675
g4673
ag4674
aa(lp4676
g4673
aa(lp4677
g4673
ag4674
aS'EG10218'
p4678
aa(lp4679
g4674
aa(lp4680
g4674
ag4678
aS'EG10327'
p4681
aS'EG10217'
p4682
aa(lp4683
g4674
ag4678
aa(lp4684
g4678
ag4681
aa(lp4685
g4678
ag4681
ag4682
aa(lp4686
g4678
aa(lp4687
g4681
aa(lp4688
g4681
ag4682
aS'EG10216'
p4689
aa(lp4690
g4681
ag4682
aa(lp4691
g4682
ag4689
aa(lp4692
g4682
aa(lp4693
g4682
ag4689
aS'EG10454'
p4694
aS'EG11059'
p4695
aa(lp4696
g4682
ag4689
ag4694
aa(lp4697
g4689
aa(lp4698
g4689
ag4694
ag4695
aa(lp4699
g4689
ag4694
ag4695
aS'G0-9461'
p4700
aa(lp4701
g4689
ag4694
aa(lp4702
g4694
aa(lp4703
g4694
ag4695
ag4700
aa(lp4704
g4694
ag4695
aa(lp4705
g4695
ag4700
aa(lp4706
g4695
aa(lp4707
g4700
aa(lp4708
S'EG10229'
p4709
aa(lp4710
S'G7198'
p4711
aa(lp4712
g4711
aS'EG10274'
p4713
aa(lp4714
g4713
aa(lp4715
S'G7199'
p4716
aa(lp4717
g4716
aS'G7200'
p4718
aa(lp4719
g4718
aS'G7201'
p4720
aS'EG11144'
p4721
aS'EG10580'
p4722
aS'EG10075'
p4723
aa(lp4724
g4718
aa(lp4725
g4720
ag4721
ag4722
ag4723
aS'EG12449'
p4726
aa(lp4727
g4720
ag4721
ag4722
ag4723
aa(lp4728
g4721
ag4722
ag4723
aa(lp4729
g4721
ag4722
ag4723
ag4726
aa(lp4730
g4722
ag4723
ag4726
aa(lp4731
g4722
ag4723
aa(lp4732
g4722
aa(lp4733
g4723
ag4726
aa(lp4734
g4723
aa(lp4735
g4726
aa(lp4736
S'G7202'
p4737
aa(lp4738
S'G7204'
p4739
aS'G7205'
p4740
aS'G7206'
p4741
aa(lp4742
g4739
ag4740
aa(lp4743
g4740
aa(lp4744
S'G7211'
p4745
aa(lp4746
S'G7212'
p4747
aS'G7213'
p4748
aa(lp4749
g4748
aa(lp4750
S'G7214'
p4751
aa(lp4752
S'EG10280'
p4753
aa(lp4754
S'G7215'
p4755
aa(lp4756
S'G7216'
p4757
aa(lp4758
S'G7217'
p4759
aa(lp4760
S'G7218'
p4761
aS'G7219'
p4762
aS'G7220'
p4763
aa(lp4764
g4761
ag4762
aa(lp4765
g4761
aa(lp4766
g4762
ag4763
aS'G7221'
p4767
aa(lp4768
g4762
ag4763
aa(lp4769
g4762
aa(lp4770
g4762
ag4763
ag4767
aS'G7222'
p4771
aa(lp4772
g4763
aa(lp4773
g4763
ag4767
aa(lp4774
g4767
aa(lp4775
S'G7229'
p4776
aa(lp4777
S'G7231'
p4778
aS'G7232'
p4779
aa(lp4780
S'G0-16654'
p4781
aS'EG13161'
p4782
aa(lp4783
g4782
aa(lp4784
S'EG10250'
p4785
aa(lp4786
S'EG10249'
p4787
aa(lp4788
S'EG13283'
p4789
aS'G7233'
p4790
aa(lp4791
g4790
aa(lp4792
S'EG11609'
p4793
aa(lp4794
S'G7236'
p4795
aS'G7237'
p4796
aa(lp4797
g4795
aa(lp4798
S'G7238'
p4799
aa(lp4800
S'G7239'
p4801
aS'G7240'
p4802
aa(lp4803
g4802
aa(lp4804
S'G7241'
p4805
aa(lp4806
S'G0-10647'
p4807
aa(lp4808
g4807
aS'G7242'
p4809
aa(lp4810
g4809
aa(lp4811
S'G7243'
p4812
aa(lp4813
g4812
aS'G7244'
p4814
aS'G7245'
p4815
aa(lp4816
g4812
ag4814
aa(lp4817
g4814
ag4815
aa(lp4818
g4814
aa(lp4819
g4815
aa(lp4820
S'G7247'
p4821
aa(lp4822
S'G7248'
p4823
aa(lp4824
S'G7250'
p4825
aa(lp4826
S'EG12957'
p4827
aa(lp4828
S'G7251'
p4829
aa(lp4830
S'G7252'
p4831
aa(lp4832
g4831
aS'G7254'
p4833
aa(lp4834
g4833
aa(lp4835
S'EG11971'
p4836
aa(lp4837
g4836
aS'G7255'
p4838
aa(lp4839
S'EG30012'
p4840
aS'EG30011'
p4841
aa(lp4842
g4841
aa(lp4843
S'EG11431'
p4844
aS'EG11432'
p4845
aa(lp4846
g4844
aa(lp4847
g4845
aS'EG10407'
p4848
aa(lp4849
g4848
aa(lp4850
S'EG30110'
p4851
aa(lp4852
g4851
aS'EG30113'
p4853
aa(lp4854
g4851
ag4853
aS'EG30114'
p4855
aa(lp4856
g4851
ag4853
ag4855
aS'EG30056'
p4857
aa(lp4858
S'G85'
p4859
aa(lp4860
S'G7257'
p4861
aa(lp4862
g4861
aS'EG12376'
p4863
aS'G0-10462'
p4864
aa(lp4865
g4863
ag4864
aa(lp4866
g4863
aa(lp4867
g4864
aS'EG10534'
p4868
aa(lp4869
g4864
aa(lp4870
g4864
ag4868
aS'G7258'
p4871
aa(lp4872
g4868
ag4871
aa(lp4873
g4868
aa(lp4874
g4871
aa(lp4875
S'EG10003'
p4876
aa(lp4877
g4876
aS'EG10192'
p4878
aa(lp4879
g4878
aS'EG10788'
p4880
aa(lp4881
g4878
aa(lp4882
g4878
ag4880
aS'EG10789'
p4883
aS'EG10165'
p4884
aa(lp4885
g4878
ag4880
ag4883
aa(lp4886
g4880
ag4883
ag4884
aa(lp4887
g4880
ag4883
aa(lp4888
g4880
aa(lp4889
g4883
ag4884
aa(lp4890
g4883
aa(lp4891
g4884
aa(lp4892
S'G7259'
p4893
aa(lp4894
S'G7260'
p4895
aS'G7261'
p4896
aa(lp4897
g4895
aa(lp4898
g4896
aa(lp4899
S'EG10193'
p4900
aa(lp4901
S'EG10183'
p4902
aS'EG10198'
p4903
aa(lp4904
g4902
ag4903
aS'EG10197'
p4905
aS'EG10195'
p4906
aa(lp4907
g4903
ag4905
ag4906
aa(lp4908
g4903
ag4905
aa(lp4909
g4905
ag4906
aa(lp4910
g4905
aa(lp4911
g4906
aa(lp4912
g4906
aS'EG12133'
p4913
aa(lp4914
g4913
aS'G7262'
p4915
aa(lp4916
g4913
aa(lp4917
g4915
aa(lp4918
S'G7263'
p4919
aS'G7264'
p4920
aS'G7265'
p4921
aa(lp4922
g4919
aa(lp4923
g4919
ag4920
aa(lp4924
S'G7266'
p4925
aa(lp4926
g4925
aS'G7267'
p4927
aS'G7268'
p4928
aS'G7269'
p4929
aa(lp4930
g4927
aa(lp4931
g4927
ag4928
ag4929
aa(lp4932
g4928
ag4929
aa(lp4933
g4928
aa(lp4934
g4929
aa(lp4935
S'EG11823'
p4936
aa(lp4937
g4936
aS'EG12189'
p4938
aa(lp4939
g4938
aa(lp4940
S'EG12190'
p4941
aS'G7270'
p4942
aS'G7271'
p4943
aa(lp4944
g4942
ag4943
aS'EG50007'
p4945
aS'EG50006'
p4946
aa(lp4947
g4942
ag4943
ag4945
aa(lp4948
g4943
ag4945
ag4946
aa(lp4949
g4945
ag4946
aa(lp4950
g4946
aa(lp4951
S'G7272'
p4952
aa(lp4953
S'G7274'
p4954
aS'G7275'
p4955
aa(lp4956
S'G7279'
p4957
aa(lp4958
S'G7280'
p4959
aa(lp4960
S'G7283'
p4961
aS'G7284'
p4962
aa(lp4963
g4962
aa(lp4964
g4962
aS'G7285'
p4965
aa(lp4966
g4965
aa(lp4967
S'G7286'
p4968
aS'G7287'
p4969
aa(lp4970
g4969
aS'G7288'
p4971
aa(lp4972
S'G7290'
p4973
aS'G7291'
p4974
aS'G7292'
p4975
aa(lp4976
g4974
ag4975
aS'G7293'
p4977
aa(lp4978
g4975
ag4977
aa(lp4979
g4977
aa(lp4980
S'EG11797'
p4981
aa(lp4982
g4981
aS'EG12100'
p4983
aa(lp4984
S'G7295'
p4985
aa(lp4986
S'EG12410'
p4987
aa(lp4988
S'EG12409'
p4989
aa(lp4990
S'EG11460'
p4991
aa(lp4992
S'G0-8888'
p4993
aa(lp4994
S'EG11147'
p4995
aS'EG10208'
p4996
aa(lp4997
g4995
ag4996
aS'G0-10463'
p4998
aa(lp4999
g4995
aa(lp5000
g4996
aa(lp5001
g4996
ag4998
aS'G7296'
p5002
aa(lp5003
g4996
ag4998
aa(lp5004
g4998
ag5002
aa(lp5005
g4998
aa(lp5006
g4998
ag5002
aS'G7297'
p5007
aS'G7298'
p5008
aa(lp5009
g5002
ag5007
aa(lp5010
g5002
ag5007
ag5008
aa(lp5011
g5002
aa(lp5012
g5007
ag5008
aa(lp5013
g5007
aa(lp5014
g5008
aS'EG10791'
p5015
aS'EG10658'
p5016
aS'EG10205'
p5017
aa(lp5018
g5008
aa(lp5019
g5008
ag5015
aa(lp5020
g5008
ag5015
ag5016
aa(lp5021
g5015
ag5016
ag5017
aa(lp5022
g5015
ag5016
aa(lp5023
g5015
aa(lp5024
g5016
ag5017
aa(lp5025
g5016
aa(lp5026
g5017
aa(lp5027
S'EG11149'
p5028
aS'EG10108'
p5029
aa(lp5030
g5028
aa(lp5031
g5029
aa(lp5032
S'G7302'
p5033
aS'G7303'
p5034
aa(lp5035
S'G7304'
p5036
aa(lp5037
S'G7310'
p5038
aa(lp5039
S'G7311'
p5040
aS'G7312'
p5041
aa(lp5042
g5040
aa(lp5043
g5041
aa(lp5044
S'G7313'
p5045
aS'EG12129'
p5046
aS'EG11332'
p5047
aa(lp5048
g5045
ag5046
aa(lp5049
g5045
aa(lp5050
g5046
ag5047
aa(lp5051
g5046
aa(lp5052
g5047
aa(lp5053
S'EG10798'
p5054
aS'EG10799'
p5055
aa(lp5056
g5054
aa(lp5057
g5055
aS'EG11510'
p5058
aa(lp5059
g5055
aa(lp5060
g5058
aa(lp5061
S'G7314'
p5062
aa(lp5063
S'G7315'
p5064
aa(lp5065
S'G7316'
p5066
aS'G7317'
p5067
aa(lp5068
g5067
aa(lp5069
S'EG10420'
p5070
aa(lp5071
g5070
aS'EG10421'
p5072
aa(lp5073
g5072
aa(lp5074
S'EG11072'
p5075
aS'G7318'
p5076
aa(lp5077
g5075
aa(lp5078
g5076
aS'G7319'
p5079
aa(lp5080
g5079
aS'G7320'
p5081
aa(lp5082
g5079
aa(lp5083
g5079
ag5081
aS'G7321'
p5084
aa(lp5085
g5081
ag5084
aa(lp5086
g5081
ag5084
aS'EG10453'
p5087
aa(lp5088
g5081
aa(lp5089
g5084
ag5087
aS'EG10370'
p5090
aa(lp5091
g5084
aa(lp5092
g5084
ag5087
aa(lp5093
g5087
ag5090
aa(lp5094
g5087
aa(lp5095
g5087
ag5090
aS'EG10015'
p5096
aa(lp5097
g5090
ag5096
aa(lp5098
g5090
aa(lp5099
g5090
ag5096
aS'EG12401'
p5100
aa(lp5101
g5096
ag5100
aa(lp5102
g5096
aa(lp5103
g5096
ag5100
aS'EG10650'
p5104
aa(lp5105
g5100
aa(lp5106
g5100
ag5104
aa(lp5107
g5104
aa(lp5108
S'EG11600'
p5109
aa(lp5110
S'G0-8879'
p5111
aS'EG11601'
p5112
aS'EG12310'
p5113
aS'EG12311'
p5114
aa(lp5115
g5111
ag5112
ag5113
ag5114
aS'EG11328'
p5116
aa(lp5117
g5112
ag5113
aa(lp5118
g5112
ag5113
ag5114
aa(lp5119
g5112
ag5113
ag5114
ag5116
aa(lp5120
g5112
aa(lp5121
g5113
aa(lp5122
g5113
ag5114
ag5116
aa(lp5123
g5113
ag5114
aa(lp5124
g5114
ag5116
aS'EG12130'
p5125
aa(lp5126
g5114
ag5116
aa(lp5127
g5114
ag5116
ag5125
aS'EG12131'
p5128
aa(lp5129
g5116
ag5125
ag5128
aS'EG12132'
p5130
aa(lp5131
g5116
ag5125
ag5128
aa(lp5132
g5116
ag5125
aa(lp5133
g5116
aa(lp5134
g5125
aa(lp5135
g5125
ag5128
ag5130
aa(lp5136
g5125
ag5128
ag5130
aS'G7324'
p5137
aa(lp5138
g5128
ag5130
ag5137
aa(lp5139
g5128
ag5130
ag5137
aS'G7325'
p5140
aS'G7326'
p5141
aa(lp5142
g5128
ag5130
ag5137
ag5140
aa(lp5143
g5128
ag5130
aa(lp5144
g5128
aa(lp5145
g5130
ag5137
ag5140
ag5141
aS'G7327'
p5146
aa(lp5147
g5130
ag5137
ag5140
ag5141
aa(lp5148
g5130
ag5137
aa(lp5149
g5130
aa(lp5150
g5130
ag5137
ag5140
aa(lp5151
g5137
ag5140
ag5141
aa(lp5152
g5137
ag5140
ag5141
ag5146
aa(lp5153
g5137
ag5140
aa(lp5154
g5140
ag5141
ag5146
aa(lp5155
g5140
ag5141
aa(lp5156
g5140
aa(lp5157
g5141
ag5146
aa(lp5158
g5141
aa(lp5159
g5146
aa(lp5160
S'EG10983'
p5161
aa(lp5162
S'G7329'
p5163
aa(lp5164
S'G7330'
p5165
aa(lp5166
S'G7331'
p5167
aS'G0-10716'
p5168
aa(lp5169
S'M015'
p5170
aa(lp5171
g5170
aS'G7334'
p5172
aS'G7335'
p5173
aa(lp5174
g5172
ag5173
aa(lp5175
g5173
aa(lp5176
S'G7336'
p5177
aa(lp5178
S'G7337'
p5179
aa(lp5180
S'G7338'
p5181
aS'G7339'
p5182
aa(lp5183
S'G7341'
p5184
aS'G7342'
p5185
aa(lp5186
g5185
aa(lp5187
S'G7343'
p5188
aa(lp5189
S'EG10408'
p5190
aa(lp5191
S'EG10456'
p5192
aa(lp5193
g5192
aS'EG10384'
p5194
aa(lp5195
g5194
aS'EG11285'
p5196
aa(lp5197
g5194
ag5196
aS'EG12139'
p5198
aa(lp5199
g5194
aa(lp5200
g5196
ag5198
aa(lp5201
g5198
aS'G7345'
p5202
aa(lp5203
g5198
ag5202
aS'G0-8910'
p5204
aa(lp5205
g5198
aa(lp5206
g5202
aa(lp5207
S'EG10797'
p5208
aa(lp5209
S'EG11372'
p5210
aa(lp5211
g5210
aS'EG11371'
p5212
aa(lp5213
g5212
aa(lp5214
S'EG12308'
p5215
aS'G7346'
p5216
aa(lp5217
g5215
aa(lp5218
S'G0-10634'
p5219
aa(lp5220
S'G0-10598'
p5221
aS'EG10247'
p5222
aS'EG10693'
p5223
aa(lp5224
g5222
ag5223
aa(lp5225
g5223
aa(lp5226
g5223
aS'EG10832'
p5227
aS'EG10270'
p5228
aS'EG10857'
p5229
aa(lp5230
g5227
ag5228
aa(lp5231
g5227
ag5228
ag5229
aa(lp5232
g5228
ag5229
aa(lp5233
g5228
aa(lp5234
g5229
aa(lp5235
S'EG10530'
p5236
aa(lp5237
g5236
aS'EG10529'
p5238
aa(lp5239
g5238
aS'G7347'
p5240
aa(lp5241
g5238
aa(lp5242
g5240
aa(lp5243
g5240
aS'G7348'
p5244
aa(lp5245
g5240
ag5244
aS'EG12341'
p5246
aS'EG11897'
p5247
aa(lp5248
g5240
ag5244
ag5246
aa(lp5249
g5244
ag5246
aa(lp5250
g5244
ag5246
ag5247
aa(lp5251
g5244
aa(lp5252
g5246
aa(lp5253
g5246
ag5247
aa(lp5254
g5247
aa(lp5255
S'EG10631'
p5256
aa(lp5257
S'EG11538'
p5258
aa(lp5259
S'EG10975'
p5260
aa(lp5261
S'EG11785'
p5262
aa(lp5263
S'EG12445'
p5264
aa(lp5265
S'EG11784'
p5266
aa(lp5267
S'EG11058'
p5268
aa(lp5269
S'EG11786'
p5270
aa(lp5271
S'EG11887'
p5272
aa(lp5273
S'G7349'
p5274
aa(lp5275
S'G7350'
p5276
aa(lp5277
S'EG10781'
p5278
aS'EG12857'
p5279
aa(lp5280
g5278
aa(lp5281
g5279
aS'EG10522'
p5282
aa(lp5283
g5279
aa(lp5284
g5282
aa(lp5285
S'EG30075'
p5286
aa(lp5287
S'EG30082'
p5288
aa(lp5289
S'EG30035'
p5290
aa(lp5291
g5290
aS'EG30089'
p5292
aa(lp5293
g5292
aa(lp5294
S'EG10157'
p5295
aa(lp5296
S'G0-10600'
p5297
aS'EG12097'
p5298
aS'EG12098'
p5299
aS'G7352'
p5300
aS'EG11151'
p5301
aa(lp5302
g5297
ag5298
aa(lp5303
g5297
ag5298
ag5299
aa(lp5304
g5297
aa(lp5305
g5298
ag5299
aa(lp5306
g5299
aa(lp5307
g5300
aa(lp5308
g5300
ag5301
aa(lp5309
g5301
aa(lp5310
g5301
aS'EG11271'
p5311
aa(lp5312
g5311
aa(lp5313
g5311
aS'EG10707'
p5314
aa(lp5315
S'EG11039'
p5316
aS'EG10078'
p5317
aa(lp5318
g5316
aa(lp5319
g5316
ag5317
aS'EG12446'
p5320
aa(lp5321
g5317
aa(lp5322
g5320
aa(lp5323
S'G7354'
p5324
aa(lp5325
g5324
aS'EG12880'
p5326
aa(lp5327
S'EG11152'
p5328
aS'EG10880'
p5329
aS'EG11023'
p5330
aa(lp5331
g5328
aa(lp5332
g5328
ag5329
ag5330
aS'EG11153'
p5333
aS'EG10915'
p5334
aa(lp5335
g5329
ag5330
ag5333
aa(lp5336
g5329
ag5330
ag5333
ag5334
aS'EG10300'
p5337
aa(lp5338
g5329
aa(lp5339
g5329
ag5330
aa(lp5340
g5329
ag5330
ag5333
ag5334
aa(lp5341
g5330
ag5333
ag5334
aa(lp5342
g5330
ag5333
aa(lp5343
g5330
aa(lp5344
g5330
ag5333
ag5334
ag5337
aa(lp5345
g5333
ag5334
aa(lp5346
g5333
ag5334
ag5337
aa(lp5347
g5333
aa(lp5348
g5334
ag5337
aa(lp5349
g5334
aa(lp5350
g5337
aa(lp5351
S'G7355'
p5352
aa(lp5353
g5352
aS'EG12442'
p5354
aa(lp5355
S'EG10416'
p5356
aa(lp5357
S'EG12192'
p5358
aS'EG10831'
p5359
aa(lp5360
g5358
aa(lp5361
g5359
aS'EG10952'
p5362
aa(lp5363
g5359
aa(lp5364
g5362
aS'G7357'
p5365
aa(lp5366
g5362
aa(lp5367
g5365
aa(lp5368
S'EG11782'
p5369
aa(lp5370
g5369
aS'EG30100'
p5371
aa(lp5372
g5371
aa(lp5373
S'EG11783'
p5374
aa(lp5375
S'EG12112'
p5376
aS'G7360'
p5377
aa(lp5378
S'G7362'
p5379
aa(lp5380
S'G7363'
p5381
aa(lp5382
S'G7364'
p5383
aa(lp5384
S'G7365'
p5385
aS'G7366'
p5386
aa(lp5387
g5385
aa(lp5388
g5386
aa(lp5389
S'G7367'
p5390
aa(lp5391
S'G7370'
p5392
aS'G7371'
p5393
aS'G7372'
p5394
aa(lp5395
g5393
aa(lp5396
S'G7373'
p5397
aa(lp5398
S'G7377'
p5399
aa(lp5400
S'G7381'
p5401
aS'G0-16660'
p5402
aa(lp5403
g5402
aa(lp5404
S'G7394'
p5405
aS'EG12387'
p5406
aa(lp5407
g5405
aa(lp5408
S'EG11329'
p5409
aS'EG10361'
p5410
aa(lp5411
g5410
aS'EG11330'
p5412
aS'EG12386'
p5413
aa(lp5414
g5412
ag5413
aa(lp5415
g5413
aa(lp5416
S'G7395'
p5417
aS'G7396'
p5418
aa(lp5419
g5418
aa(lp5420
S'G7397'
p5421
aa(lp5422
g5421
aS'G7398'
p5423
aa(lp5424
S'EG11554'
p5425
aa(lp5426
g5425
aS'G7399'
p5427
aS'EG12201'
p5428
aS'G7400'
p5429
aa(lp5430
g5427
aa(lp5431
g5427
ag5428
ag5429
aa(lp5432
g5429
aa(lp5433
S'G7401'
p5434
aa(lp5435
g5434
aS'G7402'
p5436
aa(lp5437
g5434
ag5436
aS'EG20257'
p5438
aS'EG12381'
p5439
aa(lp5440
g5434
ag5436
ag5438
aa(lp5441
g5436
ag5438
aa(lp5442
g5436
aa(lp5443
g5438
aa(lp5444
g5439
aa(lp5445
S'EG10771'
p5446
aa(lp5447
g5446
aS'EG10772'
p5448
aS'EG10773'
p5449
aa(lp5450
g5446
ag5448
aa(lp5451
g5448
ag5449
aa(lp5452
g5449
aa(lp5453
S'G7405'
p5454
aa(lp5455
g5454
aS'G7406'
p5456
aS'EG10603'
p5457
aa(lp5458
g5454
ag5456
aa(lp5459
g5454
ag5456
ag5457
aS'EG11354'
p5460
aa(lp5461
g5456
ag5457
aa(lp5462
g5456
ag5457
ag5460
aa(lp5463
g5457
ag5460
aS'EG11439'
p5464
aa(lp5465
g5457
ag5460
aa(lp5466
g5457
aa(lp5467
g5460
aa(lp5468
g5460
ag5464
aa(lp5469
g5464
aa(lp5470
S'EG12712'
p5471
aS'G0-8866'
p5472
aS'EG10418'
p5473
aS'G7407'
p5474
aS'G7408'
p5475
aa(lp5476
g5471
aa(lp5477
g5471
ag5472
aa(lp5478
g5471
ag5472
ag5473
ag5474
aa(lp5479
g5471
ag5472
ag5473
aa(lp5480
g5472
ag5473
ag5474
ag5475
aa(lp5481
g5472
ag5473
aa(lp5482
g5472
ag5473
ag5474
aa(lp5483
g5473
ag5474
ag5475
aa(lp5484
g5473
aa(lp5485
g5474
ag5475
aa(lp5486
g5474
aa(lp5487
g5475
aa(lp5488
S'EG30013'
p5489
aS'EG30019'
p5490
aS'EG30018'
p5491
aS'EG30015'
p5492
aS'EG30095'
p5493
aa(lp5494
g5489
ag5490
ag5491
ag5492
aa(lp5495
g5489
ag5490
aa(lp5496
g5490
ag5491
ag5492
ag5493
aa(lp5497
g5490
ag5491
ag5492
ag5493
aS'EG11447'
p5498
aa(lp5499
g5490
ag5491
aa(lp5500
g5491
ag5492
ag5493
aa(lp5501
g5492
ag5493
aa(lp5502
g5493
aa(lp5503
g5498
aS'EG10034'
p5504
aa(lp5505
g5498
aa(lp5506
g5504
aa(lp5507
S'EG12080'
p5508
aS'EG10823'
p5509
aS'G7409'
p5510
aa(lp5511
g5508
ag5509
aa(lp5512
g5509
aa(lp5513
g5509
ag5510
aa(lp5514
g5509
ag5510
aS'G7410'
p5515
aa(lp5516
g5510
ag5515
aa(lp5517
g5510
aa(lp5518
g5515
aa(lp5519
S'G8210'
p5520
aS'EG10969'
p5521
aS'EG10970'
p5522
aa(lp5523
g5520
aa(lp5524
g5520
ag5521
ag5522
aS'EG10971'
p5525
aS'EG10972'
p5526
aa(lp5527
g5520
ag5521
ag5522
ag5525
ag5526
aS'EG10974'
p5528
aa(lp5529
g5520
ag5521
ag5522
ag5525
aa(lp5530
g5521
ag5522
ag5525
ag5526
ag5528
aa(lp5531
g5521
ag5522
ag5525
ag5526
aa(lp5532
g5521
ag5522
ag5525
aa(lp5533
g5522
ag5525
aa(lp5534
g5522
ag5525
ag5526
aa(lp5535
g5522
ag5525
ag5526
ag5528
aa(lp5536
g5525
ag5526
ag5528
aS'EG10973'
p5537
aa(lp5538
g5525
aa(lp5539
g5528
aa(lp5540
g5528
ag5537
aa(lp5541
S'EG12108'
p5542
aa(lp5543
S'G7413'
p5544
aS'EG12450'
p5545
aa(lp5546
g5545
aa(lp5547
S'EG11552'
p5548
aS'EG10087'
p5549
aa(lp5550
g5549
aa(lp5551
S'EG10086'
p5552
aS'EG10085'
p5553
aa(lp5554
g5553
aa(lp5555
S'G7414'
p5556
aa(lp5557
S'EG10481'
p5558
aa(lp5559
g5558
aS'EG10480'
p5560
aS'EG10479'
p5561
aa(lp5562
S'EG10477'
p5563
aa(lp5564
S'EG10476'
p5565
aS'EG10475'
p5566
aa(lp5567
S'EG10483'
p5568
aS'EG10484'
p5569
aS'EG10485'
p5570
aa(lp5571
g5568
ag5569
ag5570
aS'EG10486'
p5572
aa(lp5573
g5569
ag5570
aa(lp5574
g5569
ag5570
ag5572
aS'EG10487'
p5575
aa(lp5576
g5569
ag5570
ag5572
aa(lp5577
g5569
aa(lp5578
g5570
aa(lp5579
g5570
ag5572
ag5575
aa(lp5580
g5575
aa(lp5581
S'EG10301'
p5582
aa(lp5583
S'EG11287'
p5584
aa(lp5585
S'EG10625'
p5586
aS'G7415'
p5587
aa(lp5588
g5586
aa(lp5589
S'G7416'
p5590
aa(lp5591
S'G7417'
p5592
aS'G7418'
p5593
aa(lp5594
g5592
ag5593
aS'G7419'
p5595
aS'G7420'
p5596
aa(lp5597
g5592
ag5593
ag5595
aa(lp5598
g5595
ag5596
aa(lp5599
g5596
aa(lp5600
S'EG10510'
p5601
aS'EG12111'
p5602
aa(lp5603
g5601
ag5602
aS'EG10689'
p5604
aa(lp5605
g5601
aa(lp5606
g5602
aa(lp5607
g5602
ag5604
aa(lp5608
g5602
ag5604
aS'EG11817'
p5609
aa(lp5610
g5604
ag5609
aS'G7422'
p5611
aS'EG11816'
p5612
aS'G7423'
p5613
aa(lp5614
g5604
ag5609
ag5611
aa(lp5615
g5604
aa(lp5616
g5604
ag5609
ag5611
ag5612
aa(lp5617
g5604
ag5609
aa(lp5618
g5604
ag5609
ag5611
ag5612
ag5613
aS'G7424'
p5619
aa(lp5620
g5609
ag5611
ag5612
ag5613
ag5619
aS'EG12707'
p5621
aa(lp5622
g5609
ag5611
aa(lp5623
g5609
ag5611
ag5612
aa(lp5624
g5609
aa(lp5625
g5609
ag5611
ag5612
ag5613
aa(lp5626
g5609
ag5611
ag5612
ag5613
ag5619
aa(lp5627
g5611
ag5612
ag5613
ag5619
aa(lp5628
g5611
ag5612
ag5613
aa(lp5629
g5611
ag5612
aa(lp5630
g5611
ag5612
ag5613
ag5619
ag5621
aa(lp5631
g5612
ag5613
ag5619
ag5621
aa(lp5632
g5612
ag5613
aa(lp5633
g5612
aa(lp5634
g5612
ag5613
ag5619
aa(lp5635
g5613
aa(lp5636
g5613
ag5619
aa(lp5637
g5619
ag5621
aa(lp5638
g5619
aa(lp5639
g5619
ag5621
aS'EG10185'
p5640
aS'EG10194'
p5641
aS'EG10186'
p5642
aa(lp5643
g5621
aa(lp5644
g5621
ag5640
aa(lp5645
g5621
ag5640
ag5641
ag5642
aa(lp5646
g5640
ag5641
ag5642
aa(lp5647
g5640
ag5641
aa(lp5648
g5640
aa(lp5649
g5641
aa(lp5650
g5641
ag5642
aa(lp5651
g5642
aa(lp5652
S'EG10488'
p5653
aa(lp5654
g5653
aS'EG12845'
p5655
aS'G7425'
p5656
aS'G7426'
p5657
aa(lp5658
g5653
ag5655
aa(lp5659
g5655
ag5656
ag5657
aS'G7427'
p5660
aS'G7428'
p5661
aa(lp5662
g5655
ag5656
ag5657
aa(lp5663
g5655
aa(lp5664
g5656
ag5657
aa(lp5665
g5657
ag5660
aa(lp5666
g5657
aa(lp5667
g5657
ag5660
ag5661
aa(lp5668
g5660
aa(lp5669
g5661
aS'G7429'
p5670
aa(lp5671
g5661
aa(lp5672
g5661
ag5670
aS'G7430'
p5673
aa(lp5674
S'EG10189'
p5675
aS'EG10190'
p5676
aS'EG10191'
p5677
aa(lp5678
g5675
ag5676
aa(lp5679
g5676
aa(lp5680
g5676
ag5677
aa(lp5681
g5677
aa(lp5682
S'G7431'
p5683
aa(lp5684
g5683
aS'G7432'
p5685
aS'G7433'
p5686
aa(lp5687
g5685
ag5686
aS'G7434'
p5688
aa(lp5689
g5685
ag5686
aa(lp5690
S'G7435'
p5691
aS'G7436'
p5692
aS'G7437'
p5693
aa(lp5694
S'EG13174'
p5695
aS'G7442'
p5696
aa(lp5697
g5696
aa(lp5698
S'G7443'
p5699
aa(lp5700
S'EG10258'
p5701
aa(lp5702
g5701
aS'EG10810'
p5703
aa(lp5704
g5703
aS'EG10572'
p5705
aS'EG11249'
p5706
aS'EG10571'
p5707
aa(lp5708
g5703
ag5705
aa(lp5709
g5703
aa(lp5710
g5705
ag5706
ag5707
aS'EG10835'
p5711
aa(lp5712
g5705
aa(lp5713
g5705
ag5706
ag5707
aa(lp5714
g5705
ag5706
aa(lp5715
g5706
ag5707
ag5711
aS'EG11247'
p5716
aa(lp5717
g5706
ag5707
aa(lp5718
g5706
aa(lp5719
g5706
ag5707
ag5711
aa(lp5720
g5707
ag5711
ag5716
aa(lp5721
g5707
aa(lp5722
g5707
ag5711
aa(lp5723
g5711
ag5716
aa(lp5724
g5711
aa(lp5725
g5716
aa(lp5726
S'EG11367'
p5727
aa(lp5728
S'G7445'
p5729
aS'G7446'
p5730
aa(lp5731
g5730
aa(lp5732
S'G7448'
p5733
aa(lp5734
g5733
aS'G7449'
p5735
aS'G7450'
p5736
aa(lp5737
g5735
ag5736
aa(lp5738
g5735
aa(lp5739
g5736
aa(lp5740
S'G7451'
p5741
aa(lp5742
S'G7452'
p5743
aa(lp5744
g5743
aS'EG12373'
p5745
aa(lp5746
g5745
aa(lp5747
g5745
aS'EG12142'
p5748
aa(lp5749
g5748
aa(lp5750
g5748
aS'EG11623'
p5751
aa(lp5752
g5748
ag5751
aS'EG12372'
p5753
aa(lp5754
g5751
aa(lp5755
g5753
aa(lp5756
S'EG10351'
p5757
aS'EG10348'
p5758
aa(lp5759
g5758
aa(lp5760
S'EG10349'
p5761
aS'EG10350'
p5762
aS'EG10355'
p5763
aa(lp5764
g5761
aa(lp5765
g5762
ag5763
aa(lp5766
g5763
aa(lp5767
S'EG10353'
p5768
aa(lp5769
S'EG11794'
p5770
aa(lp5771
g5770
aS'EG11793'
p5772
aS'EG11795'
p5773
aa(lp5774
g5770
ag5772
aa(lp5775
g5772
aa(lp5776
g5772
ag5773
aa(lp5777
g5773
aa(lp5778
S'G0-8867'
p5779
aa(lp5780
S'G7454'
p5781
aS'G7455'
p5782
aa(lp5783
g5781
aa(lp5784
g5782
aa(lp5785
S'G7456'
p5786
aa(lp5787
g5786
aS'G7457'
p5788
aa(lp5789
g5788
aa(lp5790
S'EG30062'
p5791
aS'EG31117'
p5792
aa(lp5793
g5791
ag5792
aS'EG30060'
p5794
aa(lp5795
g5791
ag5792
ag5794
aS'G7458'
p5796
aa(lp5797
g5791
aa(lp5798
g5792
ag5794
ag5796
aa(lp5799
g5792
aa(lp5800
g5794
aa(lp5801
g5794
ag5796
aa(lp5802
g5796
aa(lp5803
S'EG10063'
p5804
aa(lp5805
S'EG10826'
p5806
aa(lp5807
S'EG10824'
p5808
aa(lp5809
S'EG10786'
p5810
aa(lp5811
S'EG10825'
p5812
aa(lp5813
S'EG11154'
p5814
aa(lp5815
g5814
aS'EG11155'
p5816
aS'EG11156'
p5817
aa(lp5818
g5814
ag5816
aa(lp5819
g5816
ag5817
aa(lp5820
g5816
aa(lp5821
g5817
aa(lp5822
S'EG12081'
p5823
aS'EG11002'
p5824
aS'EG12128'
p5825
aa(lp5826
g5824
ag5825
aa(lp5827
g5824
aa(lp5828
g5825
aS'EG12188'
p5829
aS'G7459'
p5830
aa(lp5831
g5825
aa(lp5832
g5829
aa(lp5833
g5829
ag5830
aa(lp5834
g5830
aa(lp5835
S'EG10624'
p5836
aa(lp5837
S'G7460'
p5838
aS'G7461'
p5839
aa(lp5840
g5838
aa(lp5841
g5839
aa(lp5842
g5839
aS'G7462'
p5843
aa(lp5844
g5843
aa(lp5845
S'EG12455'
p5846
aa(lp5847
g5846
aS'EG11679'
p5848
aa(lp5849
g5848
aa(lp5850
S'EG10364'
p5851
aa(lp5852
S'EG10549'
p5853
aa(lp5854
S'EG10551'
p5855
aa(lp5856
S'EG11157'
p5857
aS'EG10056'
p5858
aa(lp5859
g5857
aa(lp5860
g5858
aa(lp5861
S'EG12361'
p5862
aS'G7463'
p5863
aa(lp5864
g5863
aa(lp5865
S'G7464'
p5866
aa(lp5867
S'G7465'
p5868
aa(lp5869
S'G7466'
p5870
aa(lp5871
S'G7467'
p5872
aa(lp5873
S'G7470'
p5874
aS'G7471'
p5875
aS'G7472'
p5876
aa(lp5877
S'G7473'
p5878
aS'G7474'
p5879
aa(lp5880
S'G7480'
p5881
aS'G7481'
p5882
aa(lp5883
S'EG30037'
p5884
aS'G7484'
p5885
aa(lp5886
g5885
aa(lp5887
S'G7485'
p5888
aa(lp5889
g5888
aS'G7486'
p5890
aa(lp5891
g5890
aS'G7487'
p5892
aa(lp5893
S'G7488'
p5894
aa(lp5895
S'G7489'
p5896
aS'G7490'
p5897
aa(lp5898
g5897
aa(lp5899
S'G7491'
p5900
aa(lp5901
S'G7494'
p5902
aa(lp5903
S'G7495'
p5904
aa(lp5905
S'G7496'
p5906
aa(lp5907
S'G7498'
p5908
aS'G7499'
p5909
aa(lp5910
g5909
aa(lp5911
S'G7500'
p5912
aa(lp5913
S'G7501'
p5914
aa(lp5915
S'G7502'
p5916
aS'G7503'
p5917
aa(lp5918
g5916
aa(lp5919
S'G7505'
p5920
aa(lp5921
S'G7506'
p5922
aa(lp5923
S'G7508'
p5924
aa(lp5925
S'EG10552'
p5926
aS'EG10762'
p5927
aa(lp5928
g5926
aa(lp5929
g5927
aS'EG10830'
p5930
aa(lp5931
g5927
aa(lp5932
g5927
ag5930
aS'EG11070'
p5933
aa(lp5934
g5930
aa(lp5935
g5930
ag5933
aS'EG11071'
p5936
aa(lp5937
g5930
ag5933
aa(lp5938
g5933
aa(lp5939
g5933
ag5936
aa(lp5940
g5936
aa(lp5941
S'EG12697'
p5942
aa(lp5943
g5942
aS'G7509'
p5944
aS'G7510'
p5945
aa(lp5946
g5944
ag5945
aa(lp5947
g5945
aa(lp5948
S'G7511'
p5949
aa(lp5950
S'G7512'
p5951
aa(lp5952
S'G7513'
p5953
aa(lp5954
S'G495'
p5955
aa(lp5956
S'G7514'
p5957
aa(lp5958
S'EG11810'
p5959
aS'EG10371'
p5960
aa(lp5961
g5959
aa(lp5962
g5960
aa(lp5963
g5960
aS'EG11442'
p5964
aa(lp5965
g5964
aa(lp5966
S'EG11333'
p5967
aS'EG11324'
p5968
aS'EG10697'
p5969
aa(lp5970
g5967
ag5968
ag5969
aS'EG11323'
p5971
aa(lp5972
g5967
ag5968
aa(lp5973
g5967
aa(lp5974
g5968
ag5969
ag5971
aa(lp5975
g5968
ag5969
aa(lp5976
g5968
aa(lp5977
g5969
ag5971
aa(lp5978
g5969
aa(lp5979
g5971
aa(lp5980
S'EG12878'
p5981
aS'EG30099'
p5982
aa(lp5983
g5981
ag5982
aS'EG11158'
p5984
aa(lp5985
g5981
aa(lp5986
g5982
ag5984
aS'G0-8886'
p5987
aS'G0-10631'
p5988
aa(lp5989
g5982
ag5984
aa(lp5990
g5982
aa(lp5991
g5987
ag5988
aS'EG10944'
p5992
aa(lp5993
g5988
aa(lp5994
g5988
ag5992
aS'EG11443'
p5995
aS'G7515'
p5996
aa(lp5997
g5992
aa(lp5998
g5992
ag5995
aa(lp5999
g5995
aa(lp6000
S'EG10490'
p6001
aa(lp6002
S'G7516'
p6003
aa(lp6004
S'G7517'
p6005
aa(lp6006
S'G7518'
p6007
aa(lp6008
g6007
aS'EG11244'
p6009
aS'EG11159'
p6010
aa(lp6011
g6009
aa(lp6012
g6009
ag6010
aa(lp6013
g6009
ag6010
aS'EG11160'
p6014
aa(lp6015
g6010
aa(lp6016
g6010
ag6014
aa(lp6017
g6014
aa(lp6018
g6014
aS'EG10282'
p6019
aS'EG10703'
p6020
aa(lp6021
g6019
ag6020
aa(lp6022
g6019
aa(lp6023
g6019
ag6020
aS'EG10368'
p6024
aa(lp6025
g6020
ag6024
aa(lp6026
g6020
aa(lp6027
g6024
aa(lp6028
g6024
aS'EG11161'
p6029
aS'EG11162'
p6030
aa(lp6031
g6029
ag6030
aS'EG11245'
p6032
aa(lp6033
g6029
ag6030
aa(lp6034
g6030
ag6032
aa(lp6035
g6030
aa(lp6036
g6032
aS'G7520'
p6037
aa(lp6038
g6037
aa(lp6039
S'EG11791'
p6040
aS'EG11427'
p6041
aa(lp6042
g6041
aa(lp6043
S'EG11291'
p6044
aa(lp6045
g6044
aS'EG10960'
p6046
aa(lp6047
g6046
aS'EG10959'
p6048
aa(lp6049
g6046
aa(lp6050
g6046
ag6048
aS'G7521'
p6051
aS'G7522'
p6052
aa(lp6053
g6048
aa(lp6054
g6048
ag6051
ag6052
aa(lp6055
g6051
ag6052
aa(lp6056
g6051
aa(lp6057
S'EG10589'
p6058
aa(lp6059
S'EG12148'
p6060
aS'EG12122'
p6061
aa(lp6062
g6060
aa(lp6063
g6061
aS'EG11336'
p6064
aS'EG12366'
p6065
aS'EG10419'
p6066
aS'G7524'
p6067
aa(lp6068
g6061
aa(lp6069
g6061
ag6064
aa(lp6070
g6064
ag6065
aa(lp6071
g6064
aa(lp6072
g6064
ag6065
ag6066
aa(lp6073
g6064
ag6065
ag6066
ag6067
aa(lp6074
g6064
ag6065
ag6066
ag6067
aS'G7525'
p6075
aa(lp6076
g6065
ag6066
ag6067
ag6075
aa(lp6077
g6065
ag6066
ag6067
aa(lp6078
g6065
ag6066
aa(lp6079
g6065
aa(lp6080
g6066
ag6067
ag6075
aa(lp6081
g6066
aa(lp6082
g6066
ag6067
aa(lp6083
g6067
ag6075
aa(lp6084
g6067
aa(lp6085
S'G7527'
p6086
aa(lp6087
g6086
aS'G7528'
p6088
aS'G7529'
p6089
aS'G7530'
p6090
aa(lp6091
g6086
ag6088
aa(lp6092
g6086
ag6088
ag6089
aa(lp6093
g6086
ag6088
ag6089
ag6090
aS'G7531'
p6094
aa(lp6095
g6088
ag6089
ag6090
aa(lp6096
g6088
ag6089
ag6090
ag6094
aa(lp6097
g6088
aa(lp6098
g6088
ag6089
aa(lp6099
g6089
ag6090
ag6094
aa(lp6100
g6089
aa(lp6101
g6089
ag6090
aa(lp6102
g6090
aa(lp6103
g6090
ag6094
aa(lp6104
S'EG10046'
p6105
aS'EG12705'
p6106
aS'EG12443'
p6107
aS'EG11779'
p6108
aa(lp6109
g6105
aa(lp6110
g6106
ag6107
ag6108
aa(lp6111
g6106
ag6107
aa(lp6112
g6106
aa(lp6113
g6107
ag6108
aa(lp6114
g6107
aa(lp6115
g6108
aa(lp6116
S'EG10627'
p6117
aa(lp6118
g6117
aS'G7532'
p6119
aa(lp6120
g6119
aS'G7533'
p6121
aa(lp6122
g6119
ag6121
aS'EG10664'
p6123
aa(lp6124
g6119
aa(lp6125
g6123
aa(lp6126
S'EG10961'
p6127
aa(lp6128
S'G7534'
p6129
aS'EG30065'
p6130
aa(lp6131
g6130
aS'G7535'
p6132
aa(lp6133
S'G7539'
p6134
aa(lp6135
S'EG20080'
p6136
aS'G7543'
p6137
aa(lp6138
g6137
aa(lp6139
g6137
aS'G0-8601'
p6140
aS'G7544'
p6141
aa(lp6142
g6141
aS'G7545'
p6143
aa(lp6144
g6143
aa(lp6145
S'G7546'
p6146
aa(lp6147
S'G7552'
p6148
aa(lp6149
S'EG12883'
p6150
aa(lp6151
S'EG12882'
p6152
aa(lp6153
S'G7553'
p6154
aa(lp6155
S'EG11805'
p6156
aS'EG11804'
p6157
aS'EG11803'
p6158
aS'EG11802'
p6159
aa(lp6160
g6156
ag6157
ag6158
aa(lp6161
g6156
ag6157
aa(lp6162
g6156
ag6157
ag6158
ag6159
aS'EG11801'
p6163
aa(lp6164
g6157
ag6158
ag6159
aa(lp6165
g6157
ag6158
ag6159
ag6163
aa(lp6166
g6158
ag6159
ag6163
aa(lp6167
g6158
aa(lp6168
g6158
ag6159
aa(lp6169
g6159
ag6163
aa(lp6170
g6159
aa(lp6171
g6159
ag6163
aS'EG11800'
p6172
aa(lp6173
g6163
aa(lp6174
g6172
aa(lp6175
g6172
aS'EG11799'
p6176
aa(lp6177
g6172
ag6176
aS'G7554'
p6178
aS'G7555'
p6179
aa(lp6180
g6172
ag6176
ag6178
aa(lp6181
g6176
ag6178
ag6179
aa(lp6182
g6176
aa(lp6183
g6176
ag6178
aa(lp6184
g6178
ag6179
aa(lp6185
g6178
aa(lp6186
g6179
aa(lp6187
S'G7556'
p6188
aa(lp6189
S'G7558'
p6190
aa(lp6191
S'G7559'
p6192
aa(lp6193
S'EG10272'
p6194
aa(lp6195
g6194
aS'EG10271'
p6196
aa(lp6197
g6196
aa(lp6198
S'EG10583'
p6199
aa(lp6200
g6199
aS'EG11824'
p6201
aa(lp6202
g6201
aa(lp6203
S'G7564'
p6204
aa(lp6205
g6204
aS'G7565'
p6206
aa(lp6207
g6206
aa(lp6208
S'G7567'
p6209
aS'G7568'
p6210
aa(lp6211
g6210
aa(lp6212
S'EG11376'
p6213
aa(lp6214
g6213
aS'EG11377'
p6215
aa(lp6216
g6215
aS'EG10686'
p6217
aa(lp6218
g6215
aa(lp6219
g6217
aa(lp6220
g6217
aS'G7570'
p6221
aa(lp6222
g6221
aa(lp6223
g6221
aS'G7571'
p6224
aS'G7572'
p6225
aa(lp6226
g6224
aa(lp6227
g6224
ag6225
aS'G7573'
p6228
aa(lp6229
g6224
ag6225
aa(lp6230
g6225
aa(lp6231
g6228
aS'G7574'
p6232
aa(lp6233
g6228
aa(lp6234
g6232
aa(lp6235
S'G7575'
p6236
aa(lp6237
g6236
aS'EG12658'
p6238
aa(lp6239
g6238
aa(lp6240
S'EG12656'
p6241
aa(lp6242
g6241
aS'EG12657'
p6243
aa(lp6244
g6243
aS'EG10687'
p6245
aS'G7578'
p6246
aS'G7579'
p6247
aS'G7580'
p6248
aa(lp6249
g6243
ag6245
ag6246
ag6247
aa(lp6250
g6243
aa(lp6251
g6245
aa(lp6252
g6245
ag6246
ag6247
ag6248
aa(lp6253
g6245
ag6246
ag6247
aa(lp6254
g6245
ag6246
aa(lp6255
g6246
ag6247
ag6248
aa(lp6256
g6246
ag6247
aa(lp6257
g6246
aa(lp6258
g6246
ag6247
ag6248
aS'EG12633'
p6259
aa(lp6260
g6247
ag6248
ag6259
aa(lp6261
g6247
ag6248
aa(lp6262
g6247
aa(lp6263
g6248
ag6259
aa(lp6264
g6248
aa(lp6265
g6259
aa(lp6266
S'EG11009'
p6267
aS'EG11164'
p6268
aS'EG11165'
p6269
aa(lp6270
g6267
ag6268
aa(lp6271
g6267
aa(lp6272
g6268
ag6269
aa(lp6273
g6268
aa(lp6274
S'EG11166'
p6275
aa(lp6276
S'EG11167'
p6277
aa(lp6278
S'EG10465'
p6279
aa(lp6280
S'G7582'
p6281
aS'EG12363'
p6282
aa(lp6283
g6281
aa(lp6284
g6282
aa(lp6285
S'EG11381'
p6286
aa(lp6287
S'G0-8913'
p6288
aS'G0-10630'
p6289
aS'G0-10602'
p6290
aS'G0-10629'
p6291
aS'G7590'
p6292
aa(lp6293
g6289
ag6290
ag6291
ag6292
aa(lp6294
g6290
ag6291
ag6292
aa(lp6295
g6290
ag6291
aa(lp6296
g6291
ag6292
aa(lp6297
g6292
aa(lp6298
S'EG11602'
p6299
aa(lp6300
g6299
aS'EG11603'
p6301
aa(lp6302
g6301
aa(lp6303
S'EG12434'
p6304
aS'EG10136'
p6305
aa(lp6306
g6304
aa(lp6307
g6305
aa(lp6308
S'EG11665'
p6309
aS'EG11673'
p6310
aa(lp6311
g6309
aa(lp6312
g6310
aa(lp6313
g6310
aS'EG11674'
p6314
aa(lp6315
g6314
aa(lp6316
S'EG12694'
p6317
aa(lp6318
S'EG11171'
p6319
aa(lp6320
S'EG10920'
p6321
aS'EG10239'
p6322
aa(lp6323
g6321
ag6322
aS'EG10896'
p6324
aa(lp6325
g6321
aa(lp6326
g6322
aa(lp6327
g6324
aa(lp6328
S'EG12717'
p6329
aS'EG30046'
p6330
aS'G7593'
p6331
aa(lp6332
g6329
aa(lp6333
g6330
ag6331
aa(lp6334
g6330
aa(lp6335
g6331
aa(lp6336
S'G7594'
p6337
aa(lp6338
S'G7595'
p6339
aa(lp6340
S'G7596'
p6341
aa(lp6342
S'G7597'
p6343
aa(lp6344
S'EG10254'
p6345
aa(lp6346
S'EG10252'
p6347
aS'EG10253'
p6348
aa(lp6349
g6347
aa(lp6350
S'G36'
p6351
aa(lp6352
S'G7601'
p6353
aS'G7602'
p6354
aa(lp6355
g6353
aa(lp6356
g6354
aa(lp6357
S'G7603'
p6358
aa(lp6359
S'G7604'
p6360
aa(lp6361
S'G7606'
p6362
aa(lp6363
S'EG12732'
p6364
aa(lp6365
g6364
aS'G7608'
p6366
aa(lp6367
g6366
aS'EG12734'
p6368
aS'G81'
p6369
aa(lp6370
g6368
ag6369
aa(lp6371
g6368
aa(lp6372
g6369
aa(lp6373
S'EG12739'
p6374
aa(lp6375
S'G7609'
p6376
aa(lp6377
g6376
aS'G7610'
p6378
aa(lp6379
g6376
ag6378
aS'G7611'
p6380
aS'G7612'
p6381
aa(lp6382
g6380
ag6381
aS'G7613'
p6383
aS'G7614'
p6384
aa(lp6385
g6380
ag6381
aa(lp6386
g6380
ag6381
ag6383
aa(lp6387
g6381
ag6383
ag6384
aS'G7615'
p6388
aa(lp6389
g6381
ag6383
ag6384
aa(lp6390
g6381
ag6383
aa(lp6391
g6381
aa(lp6392
g6383
ag6384
aa(lp6393
g6383
aa(lp6394
g6388
aa(lp6395
S'G7616'
p6396
aa(lp6397
S'G7619'
p6398
aa(lp6399
S'G7620'
p6400
aS'G7621'
p6401
aa(lp6402
g6400
aa(lp6403
g6401
aa(lp6404
S'G7622'
p6405
aS'EG12754'
p6406
aa(lp6407
S'G7626'
p6408
aS'G7627'
p6409
aa(lp6410
g6408
aa(lp6411
S'EG10989'
p6412
aa(lp6413
S'EG30069'
p6414
aa(lp6415
S'EG11175'
p6416
aS'EG11176'
p6417
aS'EG10016'
p6418
aa(lp6419
g6416
aa(lp6420
g6417
ag6418
aa(lp6421
g6417
aa(lp6422
S'EG12760'
p6423
aa(lp6424
S'EG12522'
p6425
aa(lp6426
S'EG10955'
p6427
aS'G7629'
p6428
aa(lp6429
g6427
aa(lp6430
S'G7630'
p6431
aa(lp6432
S'G7631'
p6433
aa(lp6434
g6433
aS'G7632'
p6435
aa(lp6436
g6433
ag6435
aS'G7633'
p6437
aS'EG12766'
p6438
aa(lp6439
g6433
ag6435
ag6437
aa(lp6440
g6437
aa(lp6441
S'G7634'
p6442
aS'EG12768'
p6443
aa(lp6444
S'EG12769'
p6445
aS'EG12770'
p6446
aS'G7635'
p6447
aS'G7636'
p6448
aa(lp6449
g6448
aa(lp6450
S'G7637'
p6451
aS'G7638'
p6452
aa(lp6453
S'G7640'
p6454
aS'G7641'
p6455
aa(lp6456
g6455
aa(lp6457
S'G7642'
p6458
aS'G7643'
p6459
aa(lp6460
g6458
aa(lp6461
g6458
ag6459
aS'EG12780'
p6462
aS'G7644'
p6463
aa(lp6464
g6458
ag6459
ag6462
aa(lp6465
g6459
ag6462
ag6463
aa(lp6466
g6459
aa(lp6467
g6459
ag6462
aa(lp6468
g6462
aa(lp6469
g6462
ag6463
aa(lp6470
g6463
aa(lp6471
S'G7645'
p6472
aS'G7646'
p6473
aa(lp6474
g6472
aa(lp6475
g6473
aa(lp6476
S'G7648'
p6477
aS'G7649'
p6478
aS'G7650'
p6479
aS'G7651'
p6480
aa(lp6481
g6477
aa(lp6482
g6478
aa(lp6483
g6479
aa(lp6484
g6479
ag6480
aa(lp6485
g6480
aa(lp6486
S'G7652'
p6487
aS'G7653'
p6488
aa(lp6489
g6487
ag6488
aS'G7654'
p6490
aa(lp6491
g6487
aa(lp6492
g6490
aa(lp6493
S'EG10617'
p6494
aS'EG10215'
p6495
aa(lp6496
g6494
aa(lp6497
g6495
aa(lp6498
g6495
aS'G0-10651'
p6499
aa(lp6500
g6499
aS'EG12371'
p6501
aa(lp6502
g6499
aa(lp6503
g6501
aa(lp6504
g6501
aS'EG10743'
p6505
aa(lp6506
g6505
aa(lp6507
S'G0-8870'
p6508
aS'EG10914'
p6509
aa(lp6510
g6509
aa(lp6511
g6509
aS'EG11177'
p6512
aS'EG11178'
p6513
aa(lp6514
g6512
ag6513
aa(lp6515
g6512
aa(lp6516
g6513
aa(lp6517
S'EG10505'
p6518
aS'EG10665'
p6519
aa(lp6520
g6518
aa(lp6521
g6519
aa(lp6522
g6519
aS'EG11179'
p6523
aa(lp6524
g6519
ag6523
aS'EG30061'
p6525
aa(lp6526
g6523
ag6525
aa(lp6527
g6523
aa(lp6528
g6525
aa(lp6529
S'EG10068'
p6530
aa(lp6531
S'G7655'
p6532
aa(lp6533
S'EG30050'
p6534
aS'EG12095'
p6535
aa(lp6536
g6534
ag6535
aS'EG11553'
p6537
aa(lp6538
g6535
ag6537
aa(lp6539
g6535
aa(lp6540
g6537
aS'EG50011'
p6541
aa(lp6542
g6537
aa(lp6543
g6541
aS'EG11506'
p6544
aa(lp6545
g6544
aa(lp6546
g6544
aS'EG11507'
p6547
aS'EG12794'
p6548
aa(lp6549
g6544
ag6547
aa(lp6550
g6547
ag6548
aa(lp6551
g6547
ag6548
aS'EG10415'
p6552
aa(lp6553
g6547
aa(lp6554
g6548
aa(lp6555
g6548
ag6552
aa(lp6556
g6552
aa(lp6557
S'EG10202'
p6558
aa(lp6559
S'G7656'
p6560
aS'EG11499'
p6561
aa(lp6562
g6560
ag6561
aS'EG50002'
p6563
aS'EG50001'
p6564
aa(lp6565
g6560
aa(lp6566
g6561
ag6563
ag6564
aa(lp6567
g6561
ag6563
aa(lp6568
g6561
aa(lp6569
g6563
aa(lp6570
g6563
ag6564
aa(lp6571
g6564
aa(lp6572
S'EG10017'
p6573
aa(lp6574
S'EG10656'
p6575
aS'EG11358'
p6576
aS'G7657'
p6577
aa(lp6578
g6576
ag6577
aS'G7658'
p6579
aS'G7659'
p6580
aS'EG12799'
p6581
aa(lp6582
g6576
ag6577
ag6579
ag6580
aa(lp6583
g6576
aa(lp6584
g6576
ag6577
aa(lp6585
g6577
ag6579
ag6580
ag6581
aS'EG12800'
p6586
aS'EG12801'
p6587
aa(lp6588
g6577
ag6579
ag6580
ag6581
ag6586
aa(lp6589
g6577
aa(lp6590
g6579
ag6580
ag6581
aa(lp6591
g6579
ag6580
aa(lp6592
g6579
aa(lp6593
g6579
ag6580
ag6581
ag6586
aa(lp6594
g6579
ag6580
ag6581
ag6586
ag6587
aa(lp6595
g6580
ag6581
ag6586
ag6587
aa(lp6596
g6580
ag6581
ag6586
aa(lp6597
g6580
ag6581
aa(lp6598
g6580
aa(lp6599
g6581
ag6586
ag6587
aa(lp6600
g6581
aa(lp6601
g6581
ag6586
aa(lp6602
g6586
aa(lp6603
g6586
ag6587
aa(lp6604
g6587
aa(lp6605
S'EG12802'
p6606
aS'G7662'
p6607
aa(lp6608
g6606
ag6607
aS'G7663'
p6609
aa(lp6610
g6607
ag6609
aa(lp6611
g6607
ag6609
aS'G7664'
p6612
aa(lp6613
g6607
ag6609
ag6612
aS'G7665'
p6614
aa(lp6615
g6607
aa(lp6616
g6609
ag6612
ag6614
aa(lp6617
g6609
ag6612
aa(lp6618
g6609
ag6612
ag6614
aS'EG11680'
p6619
aa(lp6620
g6609
aa(lp6621
g6612
ag6614
ag6619
aa(lp6622
g6612
ag6614
ag6619
aS'EG10898'
p6623
aS'EG11681'
p6624
aa(lp6625
g6612
ag6614
aa(lp6626
g6612
aa(lp6627
g6614
ag6619
ag6623
ag6624
aS'EG11682'
p6628
aa(lp6629
g6614
aa(lp6630
g6614
ag6619
aa(lp6631
g6614
ag6619
ag6623
ag6624
aa(lp6632
g6614
ag6619
ag6623
aa(lp6633
g6619
aa(lp6634
g6619
ag6623
ag6624
ag6628
aS'EG12146'
p6635
aa(lp6636
g6619
ag6623
ag6624
ag6628
aa(lp6637
g6619
ag6623
ag6624
aa(lp6638
g6623
ag6624
ag6628
ag6635
aS'EG12147'
p6639
aa(lp6640
g6623
aa(lp6641
g6623
ag6624
aa(lp6642
g6623
ag6624
ag6628
aa(lp6643
g6623
ag6624
ag6628
ag6635
aa(lp6644
g6624
ag6628
ag6635
ag6639
aa(lp6645
g6624
ag6628
ag6635
aa(lp6646
g6624
ag6628
aa(lp6647
g6624
aa(lp6648
g6628
ag6635
ag6639
aa(lp6649
g6628
aa(lp6650
g6628
ag6635
aa(lp6651
g6635
ag6639
aa(lp6652
g6635
aa(lp6653
S'G7667'
p6654
aa(lp6655
S'G7668'
p6656
aS'EG11383'
p6657
aS'G0-8871'
p6658
aa(lp6659
g6656
ag6657
aa(lp6660
g6657
ag6658
aa(lp6661
g6657
aa(lp6662
g6658
aa(lp6663
g6658
aS'EG10062'
p6664
aa(lp6665
g6664
aa(lp6666
S'G7669'
p6667
aa(lp6668
S'EG10404'
p6669
aa(lp6670
S'EG11514'
p6671
aa(lp6672
g6671
aS'EG11515'
p6673
aa(lp6674
S'G7673'
p6675
aa(lp6676
S'G7674'
p6677
aa(lp6678
S'G7675'
p6679
aa(lp6680
S'G7676'
p6681
aS'G7677'
p6682
aa(lp6683
g6682
aS'G436'
p6684
aa(lp6685
g6682
ag6684
aS'EG10637'
p6686
aa(lp6687
g6684
ag6686
aa(lp6688
g6686
aa(lp6689
S'G7678'
p6690
aa(lp6691
S'EG10978'
p6692
aS'EG10977'
p6693
aa(lp6694
g6692
aa(lp6695
g6692
ag6693
aS'EG10908'
p6696
aa(lp6697
g6693
aa(lp6698
g6693
ag6696
aS'EG10874'
p6699
aa(lp6700
g6696
ag6699
aS'G7680'
p6701
aa(lp6702
g6696
ag6699
aa(lp6703
g6696
aa(lp6704
g6699
ag6701
aa(lp6705
g6699
aa(lp6706
g6701
aa(lp6707
S'G7681'
p6708
aS'G7682'
p6709
aa(lp6710
g6708
aa(lp6711
g6709
aa(lp6712
S'EG11652'
p6713
aa(lp6714
S'EG10576'
p6715
aS'EG10070'
p6716
aa(lp6717
g6715
aa(lp6718
g6716
aa(lp6719
S'G7686'
p6720
aS'G7687'
p6721
aa(lp6722
g6721
aS'G7688'
p6723
aa(lp6724
g6721
aa(lp6725
g6723
aa(lp6726
S'G7689'
p6727
aa(lp6728
S'EG11299'
p6729
aS'EG11298'
p6730
aa(lp6731
g6730
aa(lp6732
g6730
aS'EG10610'
p6733
aS'EG10609'
p6734
aa(lp6735
g6730
ag6733
ag6734
aS'EG10608'
p6736
aa(lp6737
g6733
ag6734
aa(lp6738
g6733
aa(lp6739
g6733
ag6734
ag6736
aa(lp6740
g6734
aa(lp6741
g6734
ag6736
aa(lp6742
g6736
aS'EG10018'
p6743
aa(lp6744
g6736
aa(lp6745
g6743
aa(lp6746
S'EG11315'
p6747
aa(lp6748
g6747
aS'G0-16676'
p6749
aa(lp6750
S'EG10275'
p6751
aS'EG10276'
p6752
aa(lp6753
g6751
aa(lp6754
g6751
ag6752
aS'G7693'
p6755
aa(lp6756
g6752
aa(lp6757
g6755
aa(lp6758
g6755
aS'EG10685'
p6759
aa(lp6760
g6755
ag6759
aS'EG11497'
p6761
aS'EG11311'
p6762
aa(lp6763
g6755
ag6759
ag6761
aa(lp6764
g6759
aa(lp6765
g6761
aa(lp6766
g6762
aa(lp6767
g6762
aS'EG10317'
p6768
aa(lp6769
g6768
aa(lp6770
S'G7694'
p6771
aa(lp6772
S'EG30103'
p6773
aS'EG30073'
p6774
aa(lp6775
g6774
aa(lp6776
g6774
aS'EG30080'
p6777
aa(lp6778
g6777
aa(lp6779
S'EG30009'
p6780
aS'EG30044'
p6781
aa(lp6782
g6780
ag6781
aS'EG30087'
p6783
aa(lp6784
g6781
ag6783
aa(lp6785
g6781
aa(lp6786
g6783
aa(lp6787
S'G7696'
p6788
aa(lp6789
g6788
aS'G7697'
p6790
aa(lp6791
g6790
aS'EG10077'
p6792
aS'G7698'
p6793
aa(lp6794
g6790
ag6792
ag6793
aS'G7699'
p6795
aS'EG11605'
p6796
aa(lp6797
g6790
aa(lp6798
g6790
ag6792
ag6793
ag6795
aa(lp6799
g6792
ag6793
ag6795
aa(lp6800
g6792
ag6793
ag6795
ag6796
aa(lp6801
g6792
ag6793
aa(lp6802
g6793
aa(lp6803
g6793
ag6795
ag6796
aa(lp6804
g6793
ag6795
aa(lp6805
g6793
ag6795
ag6796
aS'EG11604'
p6806
aa(lp6807
g6795
aa(lp6808
g6795
ag6796
aa(lp6809
g6796
ag6806
aa(lp6810
g6796
aa(lp6811
g6806
aa(lp6812
S'EG11440'
p6813
aS'EG11268'
p6814
aS'EG12163'
p6815
aa(lp6816
g6813
ag6814
ag6815
aS'EG11019'
p6817
aa(lp6818
g6813
ag6814
aa(lp6819
g6813
aa(lp6820
g6814
ag6815
aa(lp6821
g6814
aa(lp6822
g6815
aa(lp6823
g6817
aa(lp6824
S'EG11180'
p6825
aS'G0-10465'
p6826
aa(lp6827
g6825
aa(lp6828
g6826
aS'EG11969'
p6829
aa(lp6830
g6826
ag6829
aS'EG11970'
p6831
aa(lp6832
g6826
aa(lp6833
g6829
ag6831
aa(lp6834
g6829
ag6831
aS'EG10878'
p6835
aS'EG10893'
p6836
aS'EG10903'
p6837
aS'EG10910'
p6838
aS'EG10912'
p6839
aa(lp6840
g6831
aa(lp6841
g6831
ag6835
ag6836
ag6837
ag6838
ag6839
aa(lp6842
g6835
ag6836
ag6837
ag6838
ag6839
aS'EG11232'
p6843
aa(lp6844
g6835
ag6836
ag6837
ag6838
ag6839
aa(lp6845
g6835
ag6836
ag6837
aa(lp6846
g6835
ag6836
aa(lp6847
g6835
ag6836
ag6837
ag6838
aa(lp6848
g6835
aa(lp6849
g6836
ag6837
ag6838
aa(lp6850
g6836
ag6837
ag6838
ag6839
ag6843
aS'EG10766'
p6851
aa(lp6852
g6836
aa(lp6853
g6836
ag6837
ag6838
ag6839
aa(lp6854
g6836
ag6837
aa(lp6855
g6836
ag6837
ag6838
ag6839
ag6843
aa(lp6856
g6837
ag6838
ag6839
ag6843
aa(lp6857
g6837
ag6838
ag6839
ag6843
ag6851
aS'EG10876'
p6858
aS'EG10888'
p6859
aa(lp6860
g6837
ag6838
aa(lp6861
g6837
aa(lp6862
g6837
ag6838
ag6839
aa(lp6863
g6837
ag6838
ag6839
ag6843
ag6851
aa(lp6864
g6837
ag6838
ag6839
ag6843
ag6851
ag6858
aa(lp6865
g6837
ag6838
ag6839
ag6843
ag6851
ag6858
ag6859
aS'EG10904'
p6866
aa(lp6867
g6838
ag6839
ag6843
ag6851
ag6858
aa(lp6868
g6838
ag6839
ag6843
ag6851
ag6858
ag6859
aa(lp6869
g6838
ag6839
ag6843
aa(lp6870
g6838
aa(lp6871
g6838
ag6839
ag6843
ag6851
ag6858
ag6859
ag6866
aS'EG10879'
p6872
aa(lp6873
g6838
ag6839
ag6843
ag6851
ag6858
ag6859
ag6866
aa(lp6874
g6838
ag6839
ag6843
ag6851
aa(lp6875
g6838
ag6839
aa(lp6876
g6839
ag6843
ag6851
ag6858
ag6859
ag6866
aa(lp6877
g6839
ag6843
aa(lp6878
g6839
ag6843
ag6851
ag6858
aa(lp6879
g6839
ag6843
ag6851
ag6858
ag6859
ag6866
ag6872
aa(lp6880
g6839
ag6843
ag6851
ag6858
ag6859
ag6866
ag6872
aS'EG10869'
p6881
aa(lp6882
g6839
aa(lp6883
g6839
ag6843
ag6851
ag6858
ag6859
aa(lp6884
g6839
ag6843
ag6851
aa(lp6885
g6843
ag6851
ag6858
ag6859
ag6866
ag6872
ag6881
aa(lp6886
g6843
ag6851
ag6858
ag6859
aa(lp6887
g6843
ag6851
ag6858
aa(lp6888
g6843
ag6851
ag6858
ag6859
ag6866
ag6872
ag6881
aS'EG10907'
p6889
aa(lp6890
g6843
ag6851
ag6858
ag6859
ag6866
ag6872
aa(lp6891
g6843
aa(lp6892
g6843
ag6851
ag6858
ag6859
ag6866
aa(lp6893
g6843
ag6851
ag6858
ag6859
ag6866
ag6872
ag6881
ag6889
aS'EG10913'
p6894
aa(lp6895
g6843
ag6851
aa(lp6896
g6851
ag6858
aa(lp6897
g6851
ag6858
ag6859
ag6866
ag6872
ag6881
ag6889
ag6894
aa(lp6898
g6851
ag6858
ag6859
aa(lp6899
g6851
ag6858
ag6859
ag6866
ag6872
ag6881
ag6889
aa(lp6900
g6851
ag6858
ag6859
ag6866
ag6872
aa(lp6901
g6851
ag6858
ag6859
ag6866
ag6872
ag6881
aa(lp6902
g6858
ag6859
ag6866
ag6872
ag6881
ag6889
ag6894
aS'EG10868'
p6903
aS'EG10884'
p6904
aS'EG10875'
p6905
aa(lp6906
g6858
ag6859
ag6866
ag6872
ag6881
ag6889
ag6894
ag6903
aa(lp6907
g6858
ag6859
ag6866
ag6872
ag6881
aa(lp6908
g6858
ag6859
ag6866
ag6872
ag6881
ag6889
aa(lp6909
g6858
ag6859
ag6866
aa(lp6910
g6858
ag6859
ag6866
ag6872
ag6881
ag6889
ag6894
ag6903
ag6904
aa(lp6911
g6858
ag6859
ag6866
ag6872
aa(lp6912
g6858
aa(lp6913
g6858
ag6859
ag6866
ag6872
ag6881
ag6889
ag6894
aa(lp6914
g6858
ag6859
aa(lp6915
g6859
ag6866
ag6872
aa(lp6916
g6859
ag6866
aa(lp6917
g6859
ag6866
ag6872
ag6881
aa(lp6918
g6859
ag6866
ag6872
ag6881
ag6889
ag6894
ag6903
ag6904
aa(lp6919
g6859
aa(lp6920
g6859
ag6866
ag6872
ag6881
ag6889
ag6894
ag6903
aa(lp6921
g6859
ag6866
ag6872
ag6881
ag6889
ag6894
aa(lp6922
g6859
ag6866
ag6872
ag6881
ag6889
aa(lp6923
g6859
ag6866
ag6872
ag6881
ag6889
ag6894
ag6903
ag6904
ag6905
aa(lp6924
g6866
ag6872
ag6881
ag6889
ag6894
aa(lp6925
g6866
ag6872
ag6881
ag6889
ag6894
ag6903
aa(lp6926
g6866
ag6872
ag6881
ag6889
ag6894
ag6903
ag6904
ag6905
aa(lp6927
g6866
ag6872
ag6881
ag6889
ag6894
ag6903
ag6904
aa(lp6928
g6866
ag6872
ag6881
ag6889
aa(lp6929
g6866
ag6872
aa(lp6930
g6872
ag6881
ag6889
ag6894
ag6903
ag6904
ag6905
aS'EG10916'
p6931
aa(lp6932
g6872
ag6881
ag6889
ag6894
ag6903
ag6904
aa(lp6933
g6872
ag6881
ag6889
ag6894
ag6903
ag6904
ag6905
aa(lp6934
g6872
ag6881
ag6889
ag6894
aa(lp6935
g6872
ag6881
ag6889
ag6894
ag6903
aa(lp6936
g6872
ag6881
ag6889
aa(lp6937
g6872
ag6881
ag6889
ag6894
ag6903
ag6904
ag6905
ag6931
aS'EG10887'
p6938
aS'EG10877'
p6939
aa(lp6940
g6872
ag6881
ag6889
ag6894
ag6903
ag6904
ag6905
ag6931
ag6938
aa(lp6941
g6872
aa(lp6942
g6881
ag6889
ag6894
ag6903
ag6904
ag6905
ag6931
ag6938
aa(lp6943
g6881
ag6889
ag6894
ag6903
ag6904
aa(lp6944
g6881
ag6889
ag6894
ag6903
ag6904
ag6905
ag6931
ag6938
ag6939
aa(lp6945
g6881
aa(lp6946
g6881
ag6889
ag6894
aa(lp6947
g6881
ag6889
ag6894
ag6903
ag6904
ag6905
aa(lp6948
g6881
ag6889
aa(lp6949
g6881
ag6889
ag6894
ag6903
ag6904
ag6905
ag6931
aa(lp6950
g6881
ag6889
ag6894
ag6903
aa(lp6951
g6881
ag6889
ag6894
ag6903
ag6904
ag6905
ag6931
ag6938
ag6939
aS'EG10902'
p6952
aa(lp6953
g6889
ag6894
ag6903
ag6904
ag6905
ag6931
ag6938
ag6939
ag6952
aa(lp6954
g6889
ag6894
ag6903
ag6904
ag6905
aa(lp6955
g6889
ag6894
ag6903
ag6904
ag6905
ag6931
ag6938
ag6939
ag6952
aS'EG10882'
p6956
aa(lp6957
g6889
ag6894
ag6903
ag6904
ag6905
ag6931
ag6938
aa(lp6958
g6889
ag6894
ag6903
ag6904
aa(lp6959
g6889
aa(lp6960
g6889
ag6894
aa(lp6961
g6889
ag6894
ag6903
aa(lp6962
g6889
ag6894
ag6903
ag6904
ag6905
ag6931
ag6938
ag6939
aa(lp6963
g6889
ag6894
ag6903
ag6904
ag6905
ag6931
aa(lp6964
g6894
ag6903
ag6904
ag6905
aa(lp6965
g6894
ag6903
ag6904
ag6905
ag6931
ag6938
ag6939
ag6952
ag6956
aS'EG10918'
p6966
aa(lp6967
g6894
ag6903
ag6904
ag6905
ag6931
ag6938
ag6939
ag6952
ag6956
aa(lp6968
g6894
ag6903
ag6904
ag6905
ag6931
aa(lp6969
g6894
ag6903
ag6904
aa(lp6970
g6894
ag6903
ag6904
ag6905
ag6931
ag6938
aa(lp6971
g6894
aa(lp6972
g6894
ag6903
ag6904
ag6905
ag6931
ag6938
ag6939
ag6952
aa(lp6973
g6894
ag6903
ag6904
ag6905
ag6931
ag6938
ag6939
aa(lp6974
g6894
ag6903
aa(lp6975
g6903
ag6904
aa(lp6976
g6903
ag6904
ag6905
ag6931
ag6938
ag6939
ag6952
aa(lp6977
g6903
ag6904
ag6905
aa(lp6978
g6903
ag6904
ag6905
ag6931
ag6938
ag6939
ag6952
ag6956
aa(lp6979
g6903
aa(lp6980
g6903
ag6904
ag6905
ag6931
ag6938
ag6939
ag6952
ag6956
ag6966
aa(lp6981
g6903
ag6904
ag6905
ag6931
ag6938
aa(lp6982
g6904
ag6905
ag6931
ag6938
ag6939
ag6952
ag6956
ag6966
aS'EG10865'
p6983
aS'EG10883'
p6984
aa(lp6985
g6904
ag6905
aa(lp6986
g6904
ag6905
ag6931
ag6938
ag6939
aa(lp6987
g6904
aa(lp6988
g6904
ag6905
ag6931
ag6938
ag6939
ag6952
ag6956
ag6966
aa(lp6989
g6904
ag6905
ag6931
ag6938
ag6939
ag6952
aa(lp6990
g6904
ag6905
ag6931
ag6938
ag6939
ag6952
ag6956
ag6966
ag6983
aa(lp6991
g6904
ag6905
ag6931
ag6938
aa(lp6992
g6904
ag6905
ag6931
ag6938
ag6939
ag6952
ag6956
aa(lp6993
g6905
ag6931
ag6938
ag6939
aa(lp6994
g6905
ag6931
ag6938
ag6939
ag6952
ag6956
ag6966
ag6983
ag6984
aa(lp6995
g6905
ag6931
ag6938
ag6939
ag6952
ag6956
ag6966
ag6983
aa(lp6996
g6905
aa(lp6997
g6905
ag6931
ag6938
ag6939
ag6952
aa(lp6998
g6905
ag6931
ag6938
ag6939
ag6952
ag6956
ag6966
aa(lp6999
g6931
ag6938
ag6939
ag6952
ag6956
ag6966
ag6983
aa(lp7000
g6931
ag6938
ag6939
ag6952
ag6956
ag6966
aa(lp7001
g6931
ag6938
ag6939
ag6952
aa(lp7002
g6931
ag6938
ag6939
aa(lp7003
g6931
ag6938
aa(lp7004
g6931
ag6938
ag6939
ag6952
ag6956
ag6966
ag6983
ag6984
aa(lp7005
g6931
ag6938
ag6939
ag6952
ag6956
ag6966
ag6983
ag6984
aS'EG10867'
p7006
aa(lp7007
g6931
ag6938
ag6939
ag6952
ag6956
aa(lp7008
g6938
ag6939
ag6952
ag6956
ag6966
aa(lp7009
g6938
ag6939
ag6952
ag6956
ag6966
ag6983
ag6984
aa(lp7010
g6938
aa(lp7011
g6938
ag6939
ag6952
ag6956
ag6966
ag6983
aa(lp7012
g6938
ag6939
ag6952
ag6956
ag6966
ag6983
ag6984
ag7006
aa(lp7013
g6938
ag6939
aa(lp7014
g6938
ag6939
ag6952
ag6956
aa(lp7015
g6938
ag6939
ag6952
aa(lp7016
g6939
ag6952
ag6956
ag6966
ag6983
aa(lp7017
g6939
aa(lp7018
g6939
ag6952
ag6956
ag6966
ag6983
ag6984
ag7006
aa(lp7019
g6939
ag6952
ag6956
ag6966
ag6983
ag6984
ag7006
aS'EG10866'
p7020
aa(lp7021
g6939
ag6952
ag6956
ag6966
ag6983
ag6984
aa(lp7022
g6939
ag6952
ag6956
ag6966
aa(lp7023
g6952
ag6956
ag6966
ag6983
ag6984
ag7006
ag7020
aa(lp7024
g6952
ag6956
ag6966
aa(lp7025
g6952
ag6956
ag6966
ag6983
ag6984
ag7006
aa(lp7026
g6952
aa(lp7027
g6952
ag6956
ag6966
ag6983
ag6984
aa(lp7028
g6952
ag6956
ag6966
ag6983
aa(lp7029
g6952
ag6956
ag6966
ag6983
ag6984
ag7006
ag7020
aS'EG10909'
p7030
aa(lp7031
g6956
aa(lp7032
g6956
ag6966
ag6983
aa(lp7033
g6956
ag6966
ag6983
ag6984
ag7006
ag7020
ag7030
aa(lp7034
g6956
ag6966
ag6983
ag6984
aa(lp7035
g6956
ag6966
ag6983
ag6984
ag7006
ag7020
aa(lp7036
g6956
ag6966
aa(lp7037
g6956
ag6966
ag6983
ag6984
ag7006
aa(lp7038
g6966
ag6983
ag6984
aa(lp7039
g6966
ag6983
ag6984
ag7006
ag7020
ag7030
aa(lp7040
g6966
ag6983
ag6984
ag7006
ag7020
aa(lp7041
g6966
ag6983
aa(lp7042
g6966
aa(lp7043
g6966
ag6983
ag6984
ag7006
aa(lp7044
g6983
ag6984
ag7006
ag7020
ag7030
aa(lp7045
g6983
ag6984
aa(lp7046
g6983
ag6984
ag7006
ag7020
aa(lp7047
g6983
ag6984
ag7006
aa(lp7048
g6984
aa(lp7049
g6984
ag7006
ag7020
ag7030
aa(lp7050
g6984
ag7006
ag7020
aa(lp7051
g6984
ag7006
ag7020
ag7030
aS'EG11263'
p7052
aa(lp7053
g6984
ag7006
aa(lp7054
g7006
ag7020
ag7030
aa(lp7055
g7020
ag7030
aa(lp7056
g7020
aa(lp7057
g7030
aa(lp7058
g7052
aa(lp7059
S'G7702'
p7060
aa(lp7061
S'G7704'
p7062
aa(lp7063
S'EG10113'
p7064
aS'EG11181'
p7065
aa(lp7066
g7065
aa(lp7067
g7065
aS'EG11237'
p7068
aa(lp7069
g7068
aa(lp7070
S'EG11036'
p7071
aS'EG10360'
p7072
aS'EG10906'
p7073
aa(lp7074
g7071
aa(lp7075
g7071
ag7072
aa(lp7076
g7071
ag7072
ag7073
aS'EG10911'
p7077
aa(lp7078
g7072
ag7073
ag7077
aa(lp7079
g7072
aa(lp7080
g7072
ag7073
aa(lp7081
g7073
ag7077
aS'G7712'
p7082
aa(lp7083
g7073
ag7077
aa(lp7084
g7073
aa(lp7085
g7073
ag7077
ag7082
aS'G7713'
p7086
aS'G7714'
p7087
aS'G7715'
p7088
aa(lp7089
g7077
ag7082
ag7086
ag7087
ag7088
aa(lp7090
g7077
aa(lp7091
g7082
ag7086
ag7087
ag7088
aa(lp7092
g7086
ag7087
aa(lp7093
g7086
ag7087
ag7088
aa(lp7094
g7087
ag7088
aa(lp7095
g7088
aa(lp7096
g7088
aS'G7716'
p7097
aa(lp7098
g7097
aa(lp7099
S'EG11664'
p7100
aS'EG11663'
p7101
aa(lp7102
g7100
aa(lp7103
g7101
aa(lp7104
S'G0-10466'
p7105
aa(lp7106
S'EG20110'
p7107
aS'G7717'
p7108
aa(lp7109
g7108
aa(lp7110
S'EG12903'
p7111
aS'G7718'
p7112
aa(lp7113
g7111
ag7112
aS'G7719'
p7114
aS'EG12365'
p7115
aa(lp7116
g7111
ag7112
ag7114
aa(lp7117
g7111
aa(lp7118
g7112
ag7114
aa(lp7119
g7115
aa(lp7120
S'EG11182'
p7121
aa(lp7122
S'EG10164'
p7123
aS'G7721'
p7124
aa(lp7125
g7123
aa(lp7126
S'EG10066'
p7127
aa(lp7128
g7127
aS'EG10682'
p7129
aa(lp7130
g7129
aa(lp7131
S'EG10307'
p7132
aS'EG12374'
p7133
aa(lp7134
g7132
ag7133
aS'EG10757'
p7135
aa(lp7136
g7133
aa(lp7137
g7133
ag7135
aa(lp7138
g7135
aa(lp7139
S'EG11262'
p7140
aa(lp7141
S'EG10653'
p7142
aS'EG10655'
p7143
aS'EG10654'
p7144
aa(lp7145
g7142
ag7143
aa(lp7146
g7142
aa(lp7147
g7143
ag7144
aa(lp7148
g7143
aa(lp7149
g7144
aa(lp7150
g7144
aS'EG10188'
p7151
aa(lp7152
g7151
aa(lp7153
S'G7727'
p7154
aa(lp7155
S'G7729'
p7156
aa(lp7157
S'G7734'
p7158
aS'G7735'
p7159
aa(lp7160
g7159
aa(lp7161
S'EG11030'
p7162
aa(lp7163
g7162
aS'EG11871'
p7164
aS'M004'
p7165
aa(lp7166
g7162
ag7164
aa(lp7167
g7164
ag7165
aa(lp7168
g7164
ag7165
aS'EG10204'
p7169
aa(lp7170
g7165
aa(lp7171
g7165
ag7169
aS'EG11183'
p7172
aa(lp7173
g7165
ag7169
aa(lp7174
g7169
ag7172
aS'EG10074'
p7175
aa(lp7176
g7169
aa(lp7177
g7169
ag7172
ag7175
aS'EG10081'
p7178
aa(lp7179
g7169
ag7172
aa(lp7180
g7172
aa(lp7181
g7172
ag7175
aa(lp7182
g7172
ag7175
ag7178
aa(lp7183
g7175
aa(lp7184
g7175
ag7178
aa(lp7185
g7178
aa(lp7186
S'G7736'
p7187
aS'G7737'
p7188
aS'G7738'
p7189
aS'G7739'
p7190
aa(lp7191
g7188
ag7189
ag7190
aa(lp7192
g7190
aa(lp7193
S'EG10748'
p7194
aa(lp7195
S'G7740'
p7196
aa(lp7197
S'G7742'
p7198
aS'G7743'
p7199
aS'G7744'
p7200
aa(lp7201
g7198
aa(lp7202
g7198
ag7199
aa(lp7203
g7199
aa(lp7204
g7199
ag7200
aa(lp7205
g7200
aa(lp7206
S'G7745'
p7207
aa(lp7208
S'EG10688'
p7209
aa(lp7210
S'EG10269'
p7211
aS'EG10672'
p7212
aa(lp7213
g7211
aa(lp7214
g7212
aa(lp7215
S'EG11578'
p7216
aa(lp7217
g7216
aS'G7746'
p7218
aa(lp7219
g7218
aS'EG12101'
p7220
aa(lp7221
g7218
aa(lp7222
g7220
aa(lp7223
g7220
aS'EG12102'
p7224
aS'EG12933'
p7225
aa(lp7226
g7220
ag7224
aa(lp7227
g7224
ag7225
aa(lp7228
g7225
aa(lp7229
S'EG10122'
p7230
aa(lp7231
S'G7747'
p7232
aS'G7748'
p7233
aa(lp7234
g7232
aa(lp7235
g7233
aa(lp7236
S'EG10561'
p7237
aa(lp7238
S'EG10560'
p7239
aa(lp7240
S'EG10562'
p7241
aa(lp7242
S'G7750'
p7243
aa(lp7244
S'G7751'
p7245
aa(lp7246
S'EG12356'
p7247
aa(lp7248
S'EG10400'
p7249
aS'EG10397'
p7250
aa(lp7251
g7249
ag7250
aS'EG10395'
p7252
aa(lp7253
g7249
aa(lp7254
g7250
aa(lp7255
g7250
ag7252
aa(lp7256
g7252
aa(lp7257
S'EG10394'
p7258
aS'G7752'
p7259
aa(lp7260
g7258
aa(lp7261
g7259
aa(lp7262
g7259
aS'EG10380'
p7263
aa(lp7264
g7263
aa(lp7265
g7263
aS'EG10377'
p7266
aa(lp7267
g7266
aa(lp7268
g7266
aS'EG10379'
p7269
aa(lp7270
g7269
aS'EG10381'
p7271
aa(lp7272
g7269
aa(lp7273
g7271
aS'EG10378'
p7274
aa(lp7275
g7271
aa(lp7276
g7274
aa(lp7277
g7274
aS'EG10088'
p7278
aa(lp7279
g7278
aa(lp7280
S'G7753'
p7281
aa(lp7282
S'EG12631'
p7283
aS'EG12629'
p7284
aa(lp7285
g7284
aa(lp7286
g7284
aS'EG12630'
p7287
aa(lp7288
g7287
aa(lp7289
S'G7756'
p7290
aa(lp7291
g7290
aS'G7757'
p7292
aa(lp7293
g7292
aa(lp7294
S'G7758'
p7295
aa(lp7296
S'EG11184'
p7297
aa(lp7298
S'EG11050'
p7299
aa(lp7300
g7299
aS'EG11048'
p7301
aa(lp7302
g7301
aa(lp7303
S'EG11049'
p7304
aS'EG11046'
p7305
aa(lp7306
S'EG11047'
p7307
aa(lp7308
S'EG10536'
p7309
aS'EG10537'
p7310
aa(lp7311
g7309
ag7310
aS'EG10541'
p7312
aa(lp7313
g7309
aa(lp7314
g7310
ag7312
aa(lp7315
g7310
aa(lp7316
g7310
ag7312
aS'EG10538'
p7317
aS'EG10540'
p7318
aa(lp7319
g7312
ag7317
ag7318
aa(lp7320
g7312
ag7317
aa(lp7321
g7317
ag7318
aa(lp7322
g7317
aa(lp7323
g7318
aa(lp7324
S'EG12211'
p7325
aS'EG10539'
p7326
aa(lp7327
g7325
aa(lp7328
g7326
aa(lp7329
S'EG10897'
p7330
aa(lp7331
g7330
aS'EG10345'
p7332
aS'EG10340'
p7333
aa(lp7334
g7332
ag7333
aS'EG10346'
p7335
aa(lp7336
g7332
ag7333
aa(lp7337
g7332
aa(lp7338
g7333
aa(lp7339
g7333
ag7335
aa(lp7340
g7335
aa(lp7341
S'EG10343'
p7342
aS'EG12212'
p7343
aS'EG12213'
p7344
aS'EG12214'
p7345
aa(lp7346
g7342
aa(lp7347
g7342
ag7343
aa(lp7348
g7344
aa(lp7349
g7345
aa(lp7350
g7345
aS'EG12215'
p7351
aa(lp7352
g7351
aS'EG12216'
p7353
aS'EG12217'
p7354
aa(lp7355
g7351
ag7353
aa(lp7356
g7351
aa(lp7357
g7353
aa(lp7358
g7354
aS'G7767'
p7359
aa(lp7360
g7354
aa(lp7361
g7359
aa(lp7362
S'EG12219'
p7363
aa(lp7364
S'EG12220'
p7365
aa(lp7366
S'EG12221'
p7367
aa(lp7368
S'EG12075'
p7369
aS'EG12076'
p7370
aS'EG12077'
p7371
aS'EG12078'
p7372
aa(lp7373
g7369
ag7370
aa(lp7374
g7369
ag7370
ag7371
aa(lp7375
g7369
aa(lp7376
g7370
aa(lp7377
g7370
ag7371
ag7372
aa(lp7378
g7371
ag7372
aS'EG12079'
p7379
aa(lp7380
S'EG11519'
p7381
aa(lp7382
S'EG11767'
p7383
aa(lp7384
S'EG12223'
p7385
aa(lp7386
g7385
aS'EG12224'
p7387
aa(lp7388
g7387
aa(lp7389
S'EG12229'
p7390
aa(lp7391
S'EG12230'
p7392
aS'EG12231'
p7393
aa(lp7394
g7392
aa(lp7395
g7393
aa(lp7396
S'EG11390'
p7397
aa(lp7398
S'EG12232'
p7399
aa(lp7400
S'EG12233'
p7401
aS'EG11441'
p7402
aa(lp7403
g7402
aa(lp7404
S'EG12234'
p7405
aS'EG10412'
p7406
aS'G0-9981'
p7407
aa(lp7408
g7405
ag7406
aa(lp7409
g7405
aa(lp7410
g7405
ag7406
ag7407
aS'G0-10751'
p7411
aa(lp7412
g7406
aa(lp7413
g7406
ag7407
ag7411
aa(lp7414
g7406
ag7407
aa(lp7415
S'EG12235'
p7416
aS'EG12236'
p7417
aS'EG12237'
p7418
aa(lp7419
g7416
ag7417
aa(lp7420
g7416
aa(lp7421
g7418
aa(lp7422
S'EG11890'
p7423
aa(lp7424
S'EG11400'
p7425
aa(lp7426
S'EG11399'
p7427
aS'EG11398'
p7428
aa(lp7429
g7427
aa(lp7430
g7428
aa(lp7431
S'EG11495'
p7432
aa(lp7433
S'G0-10694'
p7434
aa(lp7435
g7434
aS'EG11544'
p7436
aS'EG12240'
p7437
aa(lp7438
g7434
ag7436
aa(lp7439
S'EG12241'
p7440
aa(lp7441
S'EG12242'
p7442
aa(lp7443
S'G0-8914'
p7444
aS'EG12243'
p7445
aa(lp7446
g7445
aa(lp7447
S'EG12244'
p7448
aa(lp7449
S'EG12245'
p7450
aa(lp7451
S'EG12247'
p7452
aS'EG12248'
p7453
aa(lp7454
g7452
aa(lp7455
g7453
aa(lp7456
S'EG12249'
p7457
aa(lp7458
S'EG12253'
p7459
aa(lp7460
S'EG12254'
p7461
aa(lp7462
S'EG20044'
p7463
aa(lp7464
S'EG12258'
p7465
aa(lp7466
S'EG12261'
p7467
aS'EG12262'
p7468
aa(lp7469
g7468
aa(lp7470
S'EG12263'
p7471
aa(lp7472
g7471
aS'EG12264'
p7473
aS'EG12265'
p7474
aa(lp7475
g7471
ag7473
aa(lp7476
g7471
ag7473
ag7474
aS'G0-9041'
p7477
aa(lp7478
g7473
aa(lp7479
g7473
ag7474
aa(lp7480
g7477
aS'G0-9042'
p7481
aa(lp7482
g7481
aa(lp7483
S'EG12266'
p7484
aa(lp7485
S'EG12626'
p7486
aS'EG12625'
p7487
aS'EG10248'
p7488
aa(lp7489
g7486
aa(lp7490
g7487
aa(lp7491
g7487
ag7488
aa(lp7492
g7488
aa(lp7493
S'EG12267'
p7494
aa(lp7495
S'EG12269'
p7496
aa(lp7497
S'EG10986'
p7498
aa(lp7499
g7498
aS'EG12270'
p7500
aa(lp7501
S'EG10124'
p7502
aa(lp7503
S'EG12271'
p7504
aa(lp7505
S'EG12272'
p7506
aa(lp7507
S'EG12273'
p7508
aa(lp7509
S'EG12624'
p7510
aS'EG10166'
p7511
aS'G0-16663'
p7512
aS'G0-9613'
p7513
aS'G7776'
p7514
aa(lp7515
g7511
ag7512
ag7513
ag7514
aS'G7777'
p7516
aS'G0-10604'
p7517
aa(lp7518
g7511
aa(lp7519
g7512
ag7513
ag7514
aa(lp7520
g7514
ag7516
ag7517
aa(lp7521
g7517
aS'EG10410'
p7522
aS'EG10409'
p7523
aa(lp7524
g7522
aa(lp7525
g7522
ag7523
aa(lp7526
g7523
aa(lp7527
g7523
aS'G0-10467'
p7528
aa(lp7529
g7528
aa(lp7530
S'EG12274'
p7531
aa(lp7532
S'EG11075'
p7533
aa(lp7534
g7533
aS'EG11074'
p7535
aa(lp7536
g7535
aa(lp7537
S'EG20252'
p7538
aa(lp7539
S'EG12276'
p7540
aa(lp7541
S'EG20253'
p7542
aa(lp7543
S'EG11360'
p7544
aa(lp7545
S'EG10107'
p7546
aS'EG12277'
p7547
aa(lp7548
g7546
aa(lp7549
g7547
aa(lp7550
g7547
aS'EG12278'
p7551
aa(lp7552
g7551
aa(lp7553
S'EG12279'
p7554
aa(lp7555
S'EG12283'
p7556
aa(lp7557
S'G0-16664'
p7558
aS'G0-16665'
p7559
aS'EG12288'
p7560
aa(lp7561
g7558
ag7559
aa(lp7562
S'EG12289'
p7563
aa(lp7564
S'EG12291'
p7565
aa(lp7566
S'EG10942'
p7567
aS'EG10941'
p7568
aa(lp7569
g7567
aa(lp7570
g7568
aa(lp7571
g7568
aS'EG11762'
p7572
aa(lp7573
g7572
aa(lp7574
S'EG11187'
p7575
aa(lp7576
S'EG11766'
p7577
aS'EG11763'
p7578
aS'G0-16666'
p7579
aa(lp7580
g7578
ag7579
aS'G0-16667'
p7581
aa(lp7582
S'EG11765'
p7583
aa(lp7584
S'EG10615'
p7585
aa(lp7586
S'EG11965'
p7587
aS'G0-10468'
p7588
aa(lp7589
g7587
aa(lp7590
g7588
aa(lp7591
S'EG11964'
p7592
aa(lp7593
S'EG11961'
p7594
aS'EG11962'
p7595
aS'EG11963'
p7596
aa(lp7597
g7594
ag7595
aa(lp7598
g7594
aa(lp7599
g7595
ag7596
aa(lp7600
g7595
aa(lp7601
g7596
aa(lp7602
S'EG11888'
p7603
aS'EG10187'
p7604
aa(lp7605
g7603
ag7604
aS'EG20091'
p7606
aS'EG10937'
p7607
aa(lp7608
g7603
ag7604
ag7606
ag7607
aS'EG12294'
p7609
aa(lp7610
g7603
ag7604
ag7606
aa(lp7611
g7604
ag7606
ag7607
ag7609
aS'EG12295'
p7612
aa(lp7613
g7604
ag7606
ag7607
aa(lp7614
g7604
ag7606
ag7607
ag7609
aa(lp7615
g7604
aa(lp7616
g7604
ag7606
aa(lp7617
g7606
ag7607
ag7609
ag7612
aa(lp7618
g7606
ag7607
aa(lp7619
g7606
aa(lp7620
g7606
ag7607
ag7609
aa(lp7621
g7607
ag7609
ag7612
aa(lp7622
g7607
aa(lp7623
g7607
ag7609
aa(lp7624
g7609
ag7612
aa(lp7625
g7612
aa(lp7626
S'EG12296'
p7627
aS'EG12297'
p7628
aS'EG12298'
p7629
aa(lp7630
g7627
ag7628
aa(lp7631
g7627
aa(lp7632
g7628
aa(lp7633
g7628
ag7629
aa(lp7634
g7629
aa(lp7635
S'EG11266'
p7636
aS'EG10993'
p7637
aS'EG10512'
p7638
aa(lp7639
g7636
aa(lp7640
g7637
ag7638
aa(lp7641
g7637
aa(lp7642
g7637
ag7638
aS'EG11188'
p7643
aa(lp7644
g7638
aa(lp7645
g7638
ag7643
aa(lp7646
g7643
aa(lp7647
S'EG10838'
p7648
aS'EG12210'
p7649
aS'EG11189'
p7650
aa(lp7651
g7648
ag7649
aa(lp7652
g7648
ag7649
ag7650
aS'EG11424'
p7653
aa(lp7654
g7648
aa(lp7655
g7649
ag7650
aa(lp7656
g7649
aa(lp7657
g7650
aa(lp7658
S'EG11423'
p7659
aS'EG11426'
p7660
aa(lp7661
g7660
aa(lp7662
g7660
aS'EG11425'
p7663
aS'EG11353'
p7664
aa(lp7665
g7663
ag7664
aS'EG11352'
p7666
aa(lp7667
g7663
ag7664
aa(lp7668
g7664
aa(lp7669
g7664
ag7666
aa(lp7670
S'EG11350'
p7671
aS'EG11340'
p7672
aS'EG11339'
p7673
aS'EG11341'
p7674
aa(lp7675
g7672
aa(lp7676
g7672
ag7673
ag7674
aa(lp7677
g7673
ag7674
aa(lp7678
g7673
aa(lp7679
g7674
aa(lp7680
S'EG10520'
p7681
aa(lp7682
g7681
aS'EG11190'
p7683
aa(lp7684
g7683
aS'EG10329'
p7685
aa(lp7686
g7683
ag7685
aS'EG10891'
p7687
aS'EG10886'
p7688
aa(lp7689
g7685
aa(lp7690
g7685
ag7687
ag7688
aa(lp7691
g7687
aa(lp7692
g7687
ag7688
aa(lp7693
g7688
aa(lp7694
g7688
aS'EG11312'
p7695
aa(lp7696
g7695
aa(lp7697
S'EG10004'
p7698
aa(lp7699
g7698
aS'EG10251'
p7700
aa(lp7701
g7698
ag7700
aS'EG11191'
p7702
aa(lp7703
g7700
aa(lp7704
g7700
ag7702
aa(lp7705
g7702
aa(lp7706
S'EG10808'
p7707
aS'EG10863'
p7708
aa(lp7709
g7708
aa(lp7710
S'EG11192'
p7711
aa(lp7712
S'EG11193'
p7713
aa(lp7714
S'EG11683'
p7715
aa(lp7716
S'EG11334'
p7717
aa(lp7718
S'EG10965'
p7719
aa(lp7720
g7719
aS'EG10899'
p7721
aS'EG10966'
p7722
aa(lp7723
g7719
ag7721
aa(lp7724
g7719
ag7721
ag7722
aS'EG10967'
p7725
aa(lp7726
g7721
ag7722
ag7725
aa(lp7727
g7721
aa(lp7728
g7721
ag7722
aa(lp7729
g7722
aa(lp7730
g7722
ag7725
aa(lp7731
g7725
aS'EG10829'
p7732
aa(lp7733
g7725
aa(lp7734
g7732
aa(lp7735
S'EG10406'
p7736
aa(lp7737
S'EG11194'
p7738
aS'EG11684'
p7739
aa(lp7740
g7738
aa(lp7741
g7739
aa(lp7742
S'EG11685'
p7743
aa(lp7744
S'EG11686'
p7745
aa(lp7746
S'EG11688'
p7747
aa(lp7748
S'EG10657'
p7749
aa(lp7750
S'EG11689'
p7751
aa(lp7752
S'EG11690'
p7753
aa(lp7754
S'EG11692'
p7755
aa(lp7756
S'EG11054'
p7757
aa(lp7758
S'EG11053'
p7759
aS'EG11052'
p7760
aS'EG11051'
p7761
aa(lp7762
g7760
ag7761
aa(lp7763
g7761
aa(lp7764
g7761
aS'EG10502'
p7765
aS'EG10494'
p7766
aS'EG11275'
p7767
aa(lp7768
g7761
ag7765
aa(lp7769
g7765
aa(lp7770
g7765
ag7766
ag7767
aa(lp7771
g7766
ag7767
aa(lp7772
g7767
aa(lp7773
S'G0-10201'
p7774
aS'G0-9962'
p7775
aa(lp7776
g7775
aa(lp7777
S'EG11693'
p7778
aa(lp7779
S'EG11694'
p7780
aa(lp7781
S'EG11696'
p7782
aa(lp7783
S'EG11706'
p7784
aa(lp7785
S'EG11707'
p7786
aa(lp7787
S'EG11711'
p7788
aa(lp7789
S'EG11536'
p7790
aa(lp7791
S'EG11534'
p7792
aa(lp7793
S'EG11712'
p7794
aa(lp7795
S'EG11714'
p7796
aa(lp7797
S'GB4478'
p7798
aS'EG20049'
p7799
aS'EG20051'
p7800
aS'G7789'
p7801
aa(lp7802
g7799
ag7800
aa(lp7803
g7799
ag7800
ag7801
aa(lp7804
g7800
ag7801
aa(lp7805
g7801
aa(lp7806
S'EG11195'
p7807
aa(lp7808
g7807
aS'EG11196'
p7809
aa(lp7810
g7809
aS'EG10424'
p7811
aa(lp7812
g7809
aa(lp7813
g7811
aa(lp7814
S'EG10828'
p7815
aa(lp7816
g7815
aS'EG10242'
p7817
aa(lp7818
g7817
aS'EG10235'
p7819
aa(lp7820
g7817
aa(lp7821
g7819
aa(lp7822
S'EG10892'
p7823
aS'EG10862'
p7824
aS'G0-10470'
p7825
aS'EG11197'
p7826
aS'EG10997'
p7827
aa(lp7828
g7823
ag7824
ag7825
ag7826
aa(lp7829
g7823
ag7824
aa(lp7830
g7823
aa(lp7831
g7823
ag7824
ag7825
aa(lp7832
g7824
ag7825
aa(lp7833
g7824
ag7825
ag7826
aa(lp7834
g7825
ag7826
aa(lp7835
g7825
aa(lp7836
g7826
aa(lp7837
g7826
ag7827
aa(lp7838
g7827
aa(lp7839
S'EG11276'
p7840
aa(lp7841
g7840
aS'EG11005'
p7842
aa(lp7843
S'EG11720'
p7844
aa(lp7845
S'EG11721'
p7846
aa(lp7847
S'EG11722'
p7848
aa(lp7849
g7848
aS'EG11723'
p7850
aa(lp7851
g7850
aa(lp7852
S'EG11724'
p7853
aa(lp7854
S'EG11725'
p7855
aS'EG11726'
p7856
aS'EG11727'
p7857
aa(lp7858
g7855
aa(lp7859
g7856
ag7857
aa(lp7860
g7856
aa(lp7861
S'EG11728'
p7862
aS'EG11729'
p7863
aa(lp7864
S'EG10116'
p7865
aS'EG10735'
p7866
aS'EG10783'
p7867
aa(lp7868
g7867
aS'EG10782'
p7869
aS'EG10784'
p7870
aS'EG10734'
p7871
aa(lp7872
g7867
ag7869
ag7870
aa(lp7873
g7867
ag7869
aa(lp7874
g7869
ag7870
aa(lp7875
g7869
ag7870
ag7871
aa(lp7876
g7870
aa(lp7877
g7870
ag7871
aa(lp7878
g7871
aa(lp7879
S'EG10382'
p7880
aa(lp7881
g7880
aS'EG11198'
p7882
aa(lp7883
g7882
aa(lp7884
S'EG10100'
p7885
aa(lp7886
g7885
aS'EG10101'
p7887
aS'EG10104'
p7888
aa(lp7889
g7885
ag7887
aa(lp7890
g7887
aa(lp7891
g7887
ag7888
aS'EG10098'
p7892
aa(lp7893
g7887
ag7888
aa(lp7894
g7888
ag7892
aa(lp7895
g7888
aa(lp7896
g7888
ag7892
aS'EG10105'
p7897
aS'EG10103'
p7898
aa(lp7899
g7888
ag7892
ag7897
aa(lp7900
g7888
ag7892
ag7897
ag7898
aS'EG10102'
p7901
aa(lp7902
g7892
aa(lp7903
g7892
ag7897
ag7898
ag7901
aa(lp7904
g7892
ag7897
ag7898
ag7901
aS'EG10099'
p7905
aa(lp7906
g7892
ag7897
aa(lp7907
g7892
ag7897
ag7898
aa(lp7908
g7892
ag7897
ag7898
ag7901
ag7905
aS'EG10106'
p7909
aa(lp7910
g7897
ag7898
aa(lp7911
g7897
aa(lp7912
g7897
ag7898
ag7901
ag7905
ag7909
aa(lp7913
g7897
ag7898
ag7901
ag7905
aa(lp7914
g7897
ag7898
ag7901
aa(lp7915
g7898
ag7901
ag7905
ag7909
aa(lp7916
g7898
aa(lp7917
g7898
ag7901
ag7905
aa(lp7918
g7898
ag7901
aa(lp7919
g7901
ag7905
ag7909
aa(lp7920
g7901
aa(lp7921
g7901
ag7905
aa(lp7922
g7905
aa(lp7923
g7905
ag7909
aa(lp7924
g7909
aa(lp7925
S'EG10376'
p7926
aa(lp7927
g7926
aS'EG10375'
p7928
aa(lp7929
g7926
ag7928
aS'EG11199'
p7930
aa(lp7931
g7928
aa(lp7932
g7928
ag7930
aa(lp7933
g7930
aa(lp7934
g7930
aS'EG10093'
p7935
aa(lp7936
g7935
aa(lp7937
S'EG10091'
p7938
aa(lp7939
S'EG11730'
p7940
aS'EG11731'
p7941
aa(lp7942
g7941
aa(lp7943
S'EG11541'
p7944
aa(lp7945
S'EG10817'
p7946
aS'EG10814'
p7947
aS'EG10816'
p7948
aS'EG10815'
p7949
aa(lp7950
g7946
ag7947
aa(lp7951
g7946
ag7947
ag7948
aa(lp7952
g7946
aa(lp7953
g7949
aa(lp7954
g7949
aS'EG10818'
p7955
aa(lp7956
g7949
ag7955
aS'EG10819'
p7957
aa(lp7958
g7955
aa(lp7959
g7955
ag7957
aa(lp7960
g7957
aS'EG11732'
p7961
aS'EG11733'
p7962
aa(lp7963
g7961
ag7962
aa(lp7964
g7962
aa(lp7965
S'EG30086'
p7966
aa(lp7967
g7966
aS'EG30033'
p7968
aa(lp7969
g7968
aa(lp7970
S'EG30079'
p7971
aS'EG30072'
p7972
aS'EG30023'
p7973
aS'EG30105'
p7974
aa(lp7975
g7971
aa(lp7976
g7972
ag7973
ag7974
aa(lp7977
g7972
aa(lp7978
g7972
ag7973
aa(lp7979
g7974
aS'EG11449'
p7980
aa(lp7981
g7980
aa(lp7982
g7980
aS'EG11450'
p7983
aa(lp7984
g7983
aa(lp7985
S'EG11270'
p7986
aS'G0-10641'
p7987
aS'G8221'
p7988
aS'EG10501'
p7989
aS'EG10497'
p7990
aa(lp7991
g7986
ag7987
aa(lp7992
g7986
ag7987
ag7988
aa(lp7993
g7986
ag7987
ag7988
ag7989
aa(lp7994
g7986
aa(lp7995
g7987
ag7988
ag7989
ag7990
aa(lp7996
g7987
aa(lp7997
g7987
ag7988
aa(lp7998
g7987
ag7988
ag7989
aa(lp7999
g7989
ag7990
aa(lp8000
g7989
aa(lp8001
g7989
ag7990
aS'EG10496'
p8002
aa(lp8003
g7990
ag8002
aa(lp8004
g7990
aa(lp8005
g8002
aa(lp8006
g8002
aS'EG10493'
p8007
aa(lp8008
g8007
aa(lp8009
S'EG10503'
p8010
aa(lp8011
S'EG10495'
p8012
aa(lp8013
g8012
aS'EG12352'
p8014
aa(lp8015
g8014
aa(lp8016
S'EG10837'
p8017
aa(lp8018
S'EG10413'
p8019
aa(lp8020
g8019
aS'EG10844'
p8021
aS'EG11031'
p8022
aa(lp8023
g8019
ag8021
aa(lp8024
g8021
ag8022
aa(lp8025
g8021
aa(lp8026
g8022
aa(lp8027
g8022
aS'EG10845'
p8028
aS'EG10840'
p8029
aa(lp8030
g8022
ag8028
aa(lp8031
g8028
ag8029
aS'EG11295'
p8032
aa(lp8033
g8028
aa(lp8034
g8028
ag8029
aa(lp8035
g8029
aa(lp8036
g8029
ag8032
aa(lp8037
g8029
ag8032
aS'EG11451'
p8038
aa(lp8039
g8032
ag8038
aa(lp8040
g8032
aa(lp8041
g8038
aS'EG11452'
p8042
aa(lp8043
g8038
aa(lp8044
g8042
aS'EG11453'
p8045
aa(lp8046
g8042
aa(lp8047
g8045
aS'EG11454'
p8048
aa(lp8049
g8045
ag8048
aS'EG11455'
p8050
aa(lp8051
g8045
aa(lp8052
g8048
ag8050
aS'EG11456'
p8053
aa(lp8054
g8048
aa(lp8055
g8048
ag8050
aa(lp8056
g8050
ag8053
aa(lp8057
g8053
aS'EG11486'
p8058
aa(lp8059
g8053
ag8058
aS'G7800'
p8060
aa(lp8061
g8053
aa(lp8062
g8058
ag8060
aa(lp8063
g8058
aa(lp8064
g8060
aa(lp8065
S'EG11458'
p8066
aa(lp8067
S'EG11459'
p8068
aS'EG30017'
p8069
aa(lp8070
g8068
ag8069
aS'EG30042'
p8071
aS'EG30049'
p8072
aS'EG30068'
p8073
aa(lp8074
g8068
ag8069
ag8071
ag8072
aa(lp8075
g8068
aa(lp8076
g8068
ag8069
ag8071
aa(lp8077
g8069
ag8071
ag8072
aa(lp8078
g8069
aa(lp8079
g8069
ag8071
ag8072
ag8073
aa(lp8080
g8073
aa(lp8081
S'EG10090'
p8082
aa(lp8083
S'G0-8873'
p8084
aa(lp8085
S'EG10434'
p8086
aS'EG10433'
p8087
aa(lp8088
g8086
aa(lp8089
g8087
aS'EG10430'
p8090
aa(lp8091
g8087
aa(lp8092
g8087
ag8090
aS'EG10429'
p8093
aa(lp8094
g8090
ag8093
aa(lp8095
g8093
aa(lp8096
S'EG10170'
p8097
aa(lp8098
g8097
aS'EG11653'
p8099
aa(lp8100
g8099
aa(lp8101
S'G0-10471'
p8102
aa(lp8103
g8102
aS'EG10209'
p8104
aa(lp8105
g8102
ag8104
aS'EG11201'
p8106
aS'EG11069'
p8107
aa(lp8108
g8102
ag8104
ag8106
aa(lp8109
g8102
ag8104
ag8106
ag8107
aS'EG11202'
p8110
aa(lp8111
g8104
ag8106
ag8107
ag8110
aa(lp8112
g8104
ag8106
aa(lp8113
g8104
ag8106
ag8107
aa(lp8114
g8104
aa(lp8115
g8106
ag8107
ag8110
aa(lp8116
g8106
ag8107
aa(lp8117
g8106
aa(lp8118
g8107
aa(lp8119
g8110
aa(lp8120
g8110
aS'EG11064'
p8121
aa(lp8122
g8121
aa(lp8123
S'EG11463'
p8124
aa(lp8125
S'EG11464'
p8126
aS'EG11465'
p8127
aS'EG11466'
p8128
aS'EG11467'
p8129
aa(lp8130
g8128
aa(lp8131
g8128
ag8129
aa(lp8132
g8129
aa(lp8133
S'EG10738'
p8134
aS'EG10833'
p8135
aa(lp8136
g8134
aa(lp8137
g8135
aa(lp8138
g8135
aS'EG11468'
p8139
aa(lp8140
g8139
aa(lp8141
S'EG11469'
p8142
aa(lp8143
S'EG10739'
p8144
aS'EG11470'
p8145
aa(lp8146
g8144
aa(lp8147
g8145
aa(lp8148
S'EG11471'
p8149
aa(lp8150
S'EG10591'
p8151
aa(lp8152
S'EG10584'
p8153
aa(lp8154
S'G7804'
p8155
aa(lp8156
S'EG11045'
p8157
aS'EG11472'
p8158
aa(lp8159
g8157
aa(lp8160
g8157
ag8158
aS'EG11473'
p8161
aa(lp8162
g8157
ag8158
ag8161
aS'EG11474'
p8163
aS'G0-10737'
p8164
aa(lp8165
g8158
aa(lp8166
g8158
ag8161
ag8163
ag8164
aa(lp8167
g8158
ag8161
aa(lp8168
g8161
aa(lp8169
g8161
ag8163
ag8164
aS'EG11476'
p8170
aa(lp8171
g8161
ag8163
ag8164
aa(lp8172
g8161
ag8163
ag8164
ag8170
aS'G7806'
p8173
aS'G7808'
p8174
aa(lp8175
g8161
ag8163
ag8164
ag8170
ag8173
aa(lp8176
g8163
ag8164
aa(lp8177
g8163
ag8164
ag8170
ag8173
ag8174
aa(lp8178
g8173
ag8174
aS'EG11479'
p8179
aS'EG11481'
p8180
aS'EG10839'
p8181
aa(lp8182
g8173
ag8174
aa(lp8183
g8173
aa(lp8184
g8173
ag8174
ag8179
aa(lp8185
g8173
ag8174
ag8179
ag8180
aa(lp8186
g8174
ag8179
aa(lp8187
g8181
aa(lp8188
g8181
aS'EG11396'
p8189
aa(lp8190
g8189
aS'EG10334'
p8191
aa(lp8192
g8189
aa(lp8193
g8191
aa(lp8194
S'EG10278'
p8195
aS'EG10279'
p8196
aa(lp8197
g8196
aa(lp8198
S'EG10698'
p8199
aa(lp8200
g8199
aS'EG11484'
p8201
aa(lp8202
g8199
ag8201
aS'EG11021'
p8203
aS'EG11485'
p8204
aa(lp8205
g8199
ag8201
ag8203
aa(lp8206
g8201
aa(lp8207
g8201
ag8203
ag8204
aa(lp8208
g8201
ag8203
aa(lp8209
g8203
ag8204
aa(lp8210
g8203
aa(lp8211
g8204
aS'EG30084'
p8212
aa(lp8213
g8204
aa(lp8214
g8212
aS'EG30043'
p8215
aS'EG30008'
p8216
aa(lp8217
g8212
ag8215
aa(lp8218
g8212
aa(lp8219
g8215
ag8216
aa(lp8220
g8215
aa(lp8221
S'EG30077'
p8222
aa(lp8223
S'EG30070'
p8224
aa(lp8225
S'EG11828'
p8226
aS'EG11829'
p8227
aa(lp8228
g8227
aa(lp8229
S'EG11830'
p8230
aS'EG11831'
p8231
aa(lp8232
g8230
ag8231
aS'EG11297'
p8233
aa(lp8234
g8230
aa(lp8235
g8231
ag8233
aa(lp8236
g8231
aa(lp8237
g8233
aa(lp8238
S'EG11833'
p8239
aa(lp8240
S'EG10746'
p8241
aa(lp8242
g8241
aS'EG30098'
p8243
aa(lp8244
g8243
aa(lp8245
g8243
aS'EG11203'
p8246
aa(lp8247
g8246
aa(lp8248
S'G0-8874'
p8249
aa(lp8250
S'EG11835'
p8251
aa(lp8252
g8251
aS'EG11836'
p8253
aS'G0-10657'
p8254
aa(lp8255
g8251
ag8253
aa(lp8256
g8253
aa(lp8257
g8254
aa(lp8258
g8254
aS'EG10385'
p8259
aa(lp8260
g8254
ag8259
aS'EG10387'
p8261
aS'EG10383'
p8262
aa(lp8263
g8259
aa(lp8264
g8259
ag8261
aa(lp8265
g8259
ag8261
ag8262
aa(lp8266
g8261
aa(lp8267
g8261
ag8262
aa(lp8268
g8262
aa(lp8269
S'EG11837'
p8270
aa(lp8271
S'EG11838'
p8272
aS'EG11839'
p8273
aS'EG11840'
p8274
aa(lp8275
g8272
aa(lp8276
g8274
aa(lp8277
S'EG11842'
p8278
aa(lp8279
S'EG11844'
p8280
aS'EG11845'
p8281
aS'EG11846'
p8282
aa(lp8283
g8281
aa(lp8284
g8281
ag8282
aa(lp8285
g8281
ag8282
aS'EG11847'
p8286
aa(lp8287
S'EG11848'
p8288
aa(lp8289
S'EG11849'
p8290
aS'EG11850'
p8291
aa(lp8292
g8290
aa(lp8293
g8291
aS'EG11851'
p8294
aS'EG11852'
p8295
aa(lp8296
g8291
aa(lp8297
g8291
ag8294
aa(lp8298
g8291
ag8294
ag8295
aS'EG11853'
p8299
aa(lp8300
g8294
aa(lp8301
g8294
ag8295
ag8299
aa(lp8302
g8295
aa(lp8303
g8295
ag8299
aa(lp8304
g8299
aa(lp8305
S'EG11854'
p8306
aS'EG11855'
p8307
aS'EG10284'
p8308
aa(lp8309
g8307
aa(lp8310
g8307
ag8308
aa(lp8311
g8308
aS'EG11856'
p8312
aS'EG11857'
p8313
aa(lp8314
g8308
ag8312
aa(lp8315
g8308
aa(lp8316
g8312
ag8313
aa(lp8317
g8312
aa(lp8318
g8313
aa(lp8319
g8313
aS'EG11858'
p8320
aa(lp8321
g8320
aa(lp8322
S'EG11859'
p8323
aa(lp8324
S'EG11860'
p8325
aa(lp8326
S'EG11862'
p8327
aS'EG11863'
p8328
aS'EG11864'
p8329
aa(lp8330
g8328
ag8329
aa(lp8331
S'EG11865'
p8332
aS'EG11866'
p8333
aS'EG11867'
p8334
aa(lp8335
S'EG10843'
p8336
aa(lp8337
S'EG10842'
p8338
aa(lp8339
S'EG10953'
p8340
aS'EG11869'
p8341
aa(lp8342
g8340
aa(lp8343
S'EG11870'
p8344
aa(lp8345
g8344
aS'EG10163'
p8346
aS'EG10020'
p8347
aa(lp8348
g8346
aa(lp8349
g8346
ag8347
aa(lp8350
g8346
ag8347
aS'G7816'
p8351
aa(lp8352
g8347
aa(lp8353
g8347
ag8351
aa(lp8354
g8351
aa(lp8355
S'EG11873'
p8356
aS'EG10699'
p8357
aa(lp8358
g8356
aa(lp8359
g8357
aa(lp8360
S'EG10929'
p8361
aa(lp8362
g8361
aS'EG10138'
p8363
aa(lp8364
g8363
aa(lp8365
S'EG11015'
p8366
aS'EG11874'
p8367
aa(lp8368
g8366
aa(lp8369
g8367
aa(lp8370
S'EG11875'
p8371
aa(lp8372
S'EG11876'
p8373
aa(lp8374
g8373
aS'EG11877'
p8375
aa(lp8376
g8375
aS'EG10628'
p8377
aa(lp8378
g8377
aa(lp8379
g8377
aS'EG11517'
p8380
aa(lp8381
g8380
aS'EG10398'
p8382
aS'EG10396'
p8383
aa(lp8384
g8380
ag8382
aa(lp8385
g8380
aa(lp8386
g8382
ag8383
aa(lp8387
g8382
aa(lp8388
g8383
aa(lp8389
S'EG11878'
p8390
aa(lp8391
g8390
aS'EG11879'
p8392
aa(lp8393
g8392
aa(lp8394
g8392
aS'EG11880'
p8395
aS'EG11881'
p8396
aa(lp8397
g8392
ag8395
aa(lp8398
g8392
ag8395
ag8396
aS'EG11676'
p8399
aa(lp8400
g8395
aa(lp8401
g8395
ag8396
ag8399
aa(lp8402
g8396
ag8399
aS'EG11529'
p8403
aa(lp8404
g8396
aa(lp8405
g8396
ag8399
aa(lp8406
g8399
aa(lp8407
g8399
ag8403
aa(lp8408
g8403
aS'EG10200'
p8409
aa(lp8410
g8403
aa(lp8411
g8409
aa(lp8412
S'EG10763'
p8413
aa(lp8414
S'EG10889'
p8415
aa(lp8416
g8415
aS'EG11882'
p8417
aS'EG10588'
p8418
aa(lp8419
g8417
ag8418
aa(lp8420
g8418
aa(lp8421
S'EG10582'
p8422
aa(lp8423
g8422
aS'EG10590'
p8424
aa(lp8425
g8424
aa(lp8426
S'EG10585'
p8427
aa(lp8428
S'EG10511'
p8429
aa(lp8430
g8429
aS'EG11902'
p8431
aa(lp8432
g8431
aa(lp8433
S'EG11904'
p8434
aa(lp8435
g8434
aS'EG11905'
p8436
aa(lp8437
S'EG11906'
p8438
aa(lp8439
S'EG11908'
p8440
aS'EG11909'
p8441
aa(lp8442
g8441
aa(lp8443
S'EG11910'
p8444
aS'EG11911'
p8445
aS'EG11912'
p8446
aa(lp8447
g8444
ag8445
aa(lp8448
g8445
aa(lp8449
g8445
ag8446
aa(lp8450
S'EG11913'
p8451
aa(lp8452
S'EG11914'
p8453
aa(lp8454
S'EG10756'
p8455
aa(lp8456
S'EG11286'
p8457
aa(lp8458
S'EG10065'
p8459
aa(lp8460
g8459
aS'EG10064'
p8461
aa(lp8462
g8459
ag8461
aS'EG11223'
p8463
aS'EG31116'
p8464
aa(lp8465
g8459
ag8461
ag8463
aa(lp8466
g8461
aa(lp8467
g8461
ag8463
aa(lp8468
g8463
aa(lp8469
g8464
aa(lp8470
S'EG10681'
p8471
aa(lp8472
S'EG11428'
p8473
aa(lp8474
S'EG11394'
p8475
aS'EG11395'
p8476
aa(lp8477
g8475
aa(lp8478
g8476
aa(lp8479
S'EG11022'
p8480
aa(lp8481
S'EG10126'
p8482
aa(lp8483
S'EG11204'
p8484
aa(lp8485
g8484
aS'EG30085'
p8486
aS'EG30032'
p8487
aa(lp8488
g8486
ag8487
aa(lp8489
g8486
aa(lp8490
g8487
aa(lp8491
S'EG30078'
p8492
aa(lp8493
g8492
aS'EG30071'
p8494
aa(lp8495
g8494
aa(lp8496
S'EG11205'
p8497
aS'EG10123'
p8498
aa(lp8499
g8497
ag8498
aS'EG10922'
p8500
aa(lp8501
g8497
aa(lp8502
g8498
aa(lp8503
g8500
aa(lp8504
S'EG30102'
p8505
aS'EG30107'
p8506
aS'EG30036'
p8507
aS'EG30101'
p8508
aa(lp8509
g8505
ag8506
ag8507
aa(lp8510
g8505
ag8506
ag8507
ag8508
aS'EG11037'
p8511
aS'EG10939'
p8512
aa(lp8513
g8505
ag8506
aa(lp8514
g8505
aa(lp8515
g8505
ag8506
ag8507
ag8508
ag8511
ag8512
aS'EG10667'
p8516
aa(lp8517
g8505
ag8506
ag8507
ag8508
ag8511
aa(lp8518
g8505
ag8506
ag8507
ag8508
ag8511
ag8512
ag8516
aS'EG10872'
p8519
aa(lp8520
g8506
ag8507
ag8508
ag8511
aa(lp8521
g8506
ag8507
ag8508
aa(lp8522
g8507
ag8508
ag8511
aa(lp8523
g8507
ag8508
ag8511
ag8512
ag8516
aa(lp8524
g8507
ag8508
aa(lp8525
g8508
ag8511
ag8512
aa(lp8526
g8508
ag8511
aa(lp8527
g8508
aa(lp8528
g8511
aa(lp8529
g8511
ag8512
aa(lp8530
g8511
ag8512
ag8516
aa(lp8531
g8512
ag8516
ag8519
aa(lp8532
g8512
ag8516
ag8519
aS'EG10864'
p8533
aa(lp8534
g8512
ag8516
ag8519
ag8533
aS'EG10871'
p8535
aa(lp8536
g8512
ag8516
aa(lp8537
g8512
ag8516
ag8519
ag8533
ag8535
aS'EG10873'
p8538
aa(lp8539
g8512
aa(lp8540
g8516
ag8519
aa(lp8541
g8516
ag8519
ag8533
ag8535
aa(lp8542
g8519
aa(lp8543
g8519
ag8533
ag8535
ag8538
aa(lp8544
g8519
ag8533
ag8535
aa(lp8545
g8519
ag8533
aa(lp8546
g8533
ag8535
ag8538
aa(lp8547
g8533
aa(lp8548
g8533
ag8535
aa(lp8549
g8535
ag8538
aa(lp8550
g8535
aa(lp8551
g8538
aa(lp8552
S'EG10894'
p8553
aa(lp8554
S'EG11429'
p8555
aa(lp8556
S'G0-9388'
p8557
aS'EG11590'
p8558
aS'EG11589'
p8559
aS'G1'
p8560
aa(lp8561
g8557
aa(lp8562
g8557
ag8558
ag8559
ag8560
aS'EG11587'
p8563
aS'EG11586'
p8564
aa(lp8565
g8557
ag8558
aa(lp8566
g8557
ag8558
ag8559
ag8560
ag8563
aa(lp8567
g8558
ag8559
ag8560
aa(lp8568
g8558
aa(lp8569
g8558
ag8559
aa(lp8570
g8558
ag8559
ag8560
ag8563
aa(lp8571
g8558
ag8559
ag8560
ag8563
ag8564
aS'EG11585'
p8572
aa(lp8573
g8558
ag8559
ag8560
ag8563
ag8564
aa(lp8574
g8559
aa(lp8575
g8559
ag8560
ag8563
ag8564
aa(lp8576
g8559
ag8560
ag8563
ag8564
ag8572
aa(lp8577
g8559
ag8560
ag8563
aa(lp8578
g8559
ag8560
aa(lp8579
g8560
ag8563
ag8564
ag8572
aa(lp8580
g8560
ag8563
ag8564
ag8572
aS'EG11738'
p8581
aa(lp8582
g8560
ag8563
aa(lp8583
g8560
aa(lp8584
g8560
ag8563
ag8564
aa(lp8585
g8563
ag8564
aa(lp8586
g8563
ag8564
ag8572
aa(lp8587
g8563
ag8564
ag8572
ag8581
aa(lp8588
g8563
aa(lp8589
g8564
ag8572
aa(lp8590
g8564
ag8572
ag8581
aa(lp8591
g8564
aa(lp8592
g8572
ag8581
aa(lp8593
g8572
aa(lp8594
g8581
aa(lp8595
g8581
aS'EG11702'
p8596
aS'EG11543'
p8597
aS'EG11915'
p8598
aa(lp8599
g8581
ag8596
ag8597
aa(lp8600
g8596
ag8597
aa(lp8601
g8596
aa(lp8602
g8596
ag8597
ag8598
aS'EG11916'
p8603
aa(lp8604
g8596
ag8597
ag8598
aa(lp8605
g8596
ag8597
ag8598
ag8603
aS'EG10466'
p8606
aa(lp8607
g8597
ag8598
ag8603
aa(lp8608
g8597
aa(lp8609
g8597
ag8598
ag8603
ag8606
aa(lp8610
g8597
ag8598
ag8603
ag8606
aS'EG11917'
p8611
aa(lp8612
g8597
ag8598
aa(lp8613
g8598
ag8603
ag8606
aa(lp8614
g8598
ag8603
ag8606
ag8611
aS'EG11918'
p8615
aa(lp8616
g8598
aa(lp8617
g8598
ag8603
aa(lp8618
g8603
aa(lp8619
g8603
ag8606
aa(lp8620
g8606
ag8611
aa(lp8621
g8606
aa(lp8622
S'EG10008'
p8623
aa(lp8624
S'EG10482'
p8625
aa(lp8626
S'EG10792'
p8627
aS'EG10795'
p8628
aa(lp8629
g8627
aa(lp8630
g8628
aa(lp8631
S'EG30088'
p8632
aS'EG30034'
p8633
aa(lp8634
g8632
aa(lp8635
g8633
aa(lp8636
S'EG30081'
p8637
aa(lp8638
S'EG30074'
p8639
aa(lp8640
S'EG11206'
p8641
aS'EG11207'
p8642
aa(lp8643
g8642
aa(lp8644
S'EG10581'
p8645
aa(lp8646
S'EG10023'
p8647
aS'EG10022'
p8648
aa(lp8649
g8647
aa(lp8650
g8648
aa(lp8651
g8648
aS'EG10026'
p8652
aa(lp8653
g8652
aa(lp8654
S'EG10491'
p8655
aa(lp8656
S'EG10587'
p8657
aa(lp8658
S'EG11919'
p8659
aa(lp8660
S'EG11920'
p8661
aa(lp8662
S'EG11921'
p8663
aS'EG11922'
p8664
aS'EG10550'
p8665
aa(lp8666
g8663
aa(lp8667
g8664
aa(lp8668
g8664
ag8665
aa(lp8669
g8665
aa(lp8670
S'EG10702'
p8671
aa(lp8672
S'EG11924'
p8673
aS'EG11925'
p8674
aa(lp8675
S'EG11209'
p8676
aa(lp8677
S'EG10555'
p8678
aS'EG10554'
p8679
aa(lp8680
g8679
aa(lp8681
g8679
aS'EG10558'
p8682
aa(lp8683
g8682
aa(lp8684
S'EG10528'
p8685
aa(lp8686
S'EG10559'
p8687
aa(lp8688
S'EG11369'
p8689
aS'EG11370'
p8690
aa(lp8691
g8689
aa(lp8692
g8690
aa(lp8693
S'EG10740'
p8694
aa(lp8695
S'EG10224'
p8696
aa(lp8697
g8696
aS'EG10533'
p8698
aa(lp8699
g8698
aS'EG11491'
p8700
aS'EG11928'
p8701
aa(lp8702
g8698
ag8700
aa(lp8703
g8698
aa(lp8704
g8701
aa(lp8705
g8701
aS'EG11929'
p8706
aa(lp8707
g8706
aa(lp8708
S'EG11932'
p8709
aa(lp8710
g8709
aS'EG11933'
p8711
aa(lp8712
g8709
ag8711
aS'EG11492'
p8713
aa(lp8714
g8713
aa(lp8715
S'EG10236'
p8716
aa(lp8717
g8716
aS'EG10001'
p8718
aa(lp8719
g8718
aa(lp8720
S'EG11040'
p8721
aa(lp8722
S'EG11934'
p8723
aS'EG11935'
p8724
aS'EG11936'
p8725
aa(lp8726
g8723
aa(lp8727
g8724
aa(lp8728
g8724
ag8725
aa(lp8729
S'EG11061'
p8730
aa(lp8731
S'EG10976'
p8732
aa(lp8733
g8732
aS'EG11937'
p8734
aa(lp8735
g8734
aa(lp8736
S'EG11938'
p8737
aS'EG10958'
p8738
aa(lp8739
g8738
aa(lp8740
S'EG10957'
p8741
aa(lp8742
g8741
aS'G0-8875'
p8743
aa(lp8744
S'EG11939'
p8745
aS'EG11940'
p8746
aa(lp8747
g8745
aa(lp8748
g8746
aa(lp8749
S'EG11942'
p8750
aS'EG11943'
p8751
aa(lp8752
g8750
ag8751
aS'EG11448'
p8753
aa(lp8754
g8751
ag8753
aa(lp8755
g8753
aa(lp8756
S'EG11781'
p8757
aa(lp8758
g8757
aS'EG11945'
p8759
aa(lp8760
g8757
ag8759
aS'EG11946'
p8761
aS'EG11947'
p8762
aa(lp8763
g8759
ag8761
aa(lp8764
S'EG11949'
p8765
aS'EG11950'
p8766
aa(lp8767
S'EG10405'
p8768
aa(lp8769
S'EG11951'
p8770
aa(lp8771
S'EG11954'
p8772
aa(lp8773
g8772
aS'G0-10608'
p8774
aa(lp8775
S'EG11956'
p8776
aS'EG11957'
p8777
aa(lp8778
g8776
aa(lp8779
g8777
aa(lp8780
g8777
aS'EG11958'
p8781
aa(lp8782
S'EG11959'
p8783
aS'EG12458'
p8784
aS'G7821'
p8785
aa(lp8786
g8784
ag8785
aa(lp8787
g8784
aa(lp8788
g8785
aa(lp8789
S'EG11827'
p8790
aS'G0-9541'
p8791
aa(lp8792
g8791
aa(lp8793
S'EG10725'
p8794
aS'EG10724'
p8795
aa(lp8796
g8795
aS'EG10723'
p8797
aa(lp8798
g8795
aa(lp8799
S'EG10721'
p8800
aS'EG10720'
p8801
aS'EG10719'
p8802
aa(lp8803
g8800
ag8801
aa(lp8804
g8802
aS'EG10718'
p8805
aS'EG10717'
p8806
aa(lp8807
S'EG10716'
p8808
aa(lp8809
S'EG10714'
p8810
aS'EG10713'
p8811
aa(lp8812
g8811
aS'EG10712'
p8813
aa(lp8814
g8813
aa(lp8815
S'EG10711'
p8816
aa(lp8817
S'EG11210'
p8818
aa(lp8819
g8818
aS'G7823'
p8820
aa(lp8821
g8820
aa(lp8822
S'EG11612'
p8823
aa(lp8824
g8823
aS'G0-10707'
p8825
aa(lp8826
g8825
aS'EG11614'
p8827
aa(lp8828
g8825
aa(lp8829
g8825
ag8827
aS'EG11615'
p8830
aS'EG11613'
p8831
aa(lp8832
g8825
ag8827
ag8830
aa(lp8833
g8830
aa(lp8834
g8830
ag8831
aa(lp8835
g8831
aa(lp8836
S'EG11966'
p8837
aa(lp8838
S'EG11501'
p8839
aa(lp8840
S'EG11230'
p8841
aa(lp8842
S'EG10577'
p8843
aS'EG10578'
p8844
aa(lp8845
g8843
aa(lp8846
S'G7825'
p8847
aa(lp8848
S'EG10357'
p8849
aS'EG10006'
p8850
aa(lp8851
g8849
aa(lp8852
g8850
aa(lp8853
S'G7826'
p8854
aa(lp8855
g8854
aS'G7827'
p8856
aa(lp8857
g8856
aa(lp8858
S'G7828'
p8859
aS'G7829'
p8860
aa(lp8861
g8860
aa(lp8862
S'G7830'
p8863
aS'G0-10472'
p8864
aS'EG10553'
p8865
aa(lp8866
g8865
aa(lp8867
S'G0-16670'
p8868
aS'EG30064'
p8869
aS'EG12176'
p8870
aS'EG12178'
p8871
aS'EG12177'
p8872
aa(lp8873
g8869
ag8870
ag8871
ag8872
aa(lp8874
g8870
ag8871
aa(lp8875
g8870
ag8871
ag8872
aa(lp8876
g8871
ag8872
aa(lp8877
g8871
ag8872
aS'EG11225'
p8878
aa(lp8879
g8872
ag8878
aa(lp8880
g8872
aa(lp8881
g8872
ag8878
aS'EG10095'
p8882
aa(lp8883
g8878
aa(lp8884
g8878
ag8882
aa(lp8885
g8882
aa(lp8886
S'G7832'
p8887
aa(lp8888
S'G7833'
p8889
aa(lp8890
S'EG10600'
p8891
aS'EG10599'
p8892
aS'G7834'
p8893
aa(lp8894
g8891
aa(lp8895
g8891
ag8892
aa(lp8896
g8892
aa(lp8897
g8893
aa(lp8898
g8893
aS'G7835'
p8899
aa(lp8900
g8899
aa(lp8901
S'G7836'
p8902
aa(lp8903
S'EG12099'
p8904
aS'G0-41'
p8905
aS'G0-9562'
p8906
aa(lp8907
g8904
ag8905
aa(lp8908
g8904
aa(lp8909
g8905
aa(lp8910
S'EG11616'
p8911
aS'G7837'
p8912
aS'EG10040'
p8913
aa(lp8914
g8911
ag8912
aa(lp8915
g8911
aa(lp8916
g8912
aa(lp8917
g8913
aa(lp8918
S'EG10333'
p8919
aa(lp8920
g8919
aS'EG10332'
p8921
aS'EG10331'
p8922
aS'EG10330'
p8923
aa(lp8924
g8919
ag8921
ag8922
aa(lp8925
g8921
aa(lp8926
g8921
ag8922
ag8923
aa(lp8927
g8922
aa(lp8928
g8922
ag8923
aa(lp8929
g8923
aa(lp8930
S'EG11211'
p8931
aa(lp8932
g8931
aS'EG12475'
p8933
aa(lp8934
g8931
ag8933
aS'G7838'
p8935
aa(lp8936
g8933
ag8935
aa(lp8937
g8933
ag8935
aS'G7839'
p8938
aa(lp8939
g8933
aa(lp8940
g8935
aa(lp8941
S'EG10775'
p8942
aS'G7841'
p8943
aa(lp8944
g8942
aa(lp8945
g8943
aa(lp8946
S'G7842'
p8947
aa(lp8948
g8947
aS'EG30038'
p8949
aS'EG30040'
p8950
aS'EG30041'
p8951
aa(lp8952
g8947
ag8949
aa(lp8953
g8947
ag8949
ag8950
aa(lp8954
g8949
ag8950
ag8951
aa(lp8955
g8949
ag8950
aa(lp8956
g8949
aa(lp8957
S'G0-10642'
p8958
aS'G7843'
p8959
aa(lp8960
S'EG11758'
p8961
aS'EG11757'
p8962
aS'EG11363'
p8963
aa(lp8964
g8961
ag8962
aa(lp8965
g8961
aa(lp8966
g8962
ag8963
aS'EG11281'
p8967
aa(lp8968
g8962
aa(lp8969
g8962
ag8963
aa(lp8970
g8963
aa(lp8971
g8967
aS'EG10595'
p8972
aa(lp8973
g8967
ag8972
aS'EG10438'
p8974
aa(lp8975
g8967
aa(lp8976
g8972
aa(lp8977
g8972
ag8974
aS'EG10437'
p8978
aa(lp8979
g8972
ag8974
aa(lp8980
g8974
aa(lp8981
g8974
ag8978
aS'EG10436'
p8982
aS'EG10435'
p8983
aa(lp8984
g8974
ag8978
aa(lp8985
g8974
ag8978
ag8982
aa(lp8986
g8978
aa(lp8987
g8978
ag8982
aa(lp8988
g8982
ag8983
aa(lp8989
g8982
aa(lp8990
g8983
aS'G7844'
p8991
aa(lp8992
S'EG10790'
p8993
aa(lp8994
g8993
aS'EG11212'
p8995
aa(lp8996
g8995
aS'EG11259'
p8997
aS'G7845'
p8998
aa(lp8999
g8995
aa(lp9000
g8995
ag8997
aa(lp9001
g8997
aa(lp9002
g8997
ag8998
aa(lp9003
S'G7846'
p9004
aS'G7847'
p9005
aa(lp9006
S'G7848'
p9007
aS'G7849'
p9008
aa(lp9009
S'G7850'
p9010
aa(lp9011
S'EG11811'
p9012
aa(lp9013
g9012
aS'G7851'
p9014
aa(lp9015
g9014
aa(lp9016
g9014
aS'G7852'
p9017
aa(lp9018
S'G7853'
p9019
aa(lp9020
S'G7854'
p9021
aa(lp9022
S'G7855'
p9023
aa(lp9024
S'G7856'
p9025
aS'EG12494'
p9026
aS'EG12495'
p9027
aS'G7858'
p9028
aa(lp9029
g9025
ag9026
ag9027
ag9028
aS'G7859'
p9030
aa(lp9031
g9025
ag9026
aa(lp9032
g9025
ag9026
ag9027
aa(lp9033
g9026
ag9027
ag9028
aa(lp9034
g9026
ag9027
ag9028
ag9030
aS'G7860'
p9035
aa(lp9036
g9027
ag9028
aa(lp9037
g9027
ag9028
ag9030
ag9035
aa(lp9038
g9028
aa(lp9039
g9028
ag9030
aa(lp9040
g9035
aa(lp9041
S'EG10905'
p9042
aS'EG10764'
p9043
aS'EG10917'
p9044
aS'EG10870'
p9045
aS'G7862'
p9046
aa(lp9047
g9042
ag9043
aa(lp9048
g9042
ag9043
ag9044
ag9045
aa(lp9049
g9042
aa(lp9050
g9042
ag9043
ag9044
aa(lp9051
g9043
ag9044
aa(lp9052
g9043
ag9044
ag9045
aa(lp9053
g9044
ag9045
aa(lp9054
g9045
aa(lp9055
S'G7863'
p9056
aS'G7864'
p9057
aa(lp9058
g9057
aa(lp9059
S'G7865'
p9060
aS'EG12504'
p9061
aa(lp9062
g9060
aa(lp9063
g9061
aa(lp9064
g9061
aS'G7866'
p9065
aa(lp9066
g9065
aa(lp9067
S'G7867'
p9068
aa(lp9069
g9068
aS'G7868'
p9070
aa(lp9071
g9070
aa(lp9072
S'G7869'
p9073
aa(lp9074
S'EG10160'
p9075
aa(lp9076
S'EG10043'
p9077
aa(lp9078
g9077
aS'G7870'
p9079
aa(lp9080
S'G7871'
p9081
aa(lp9082
S'G7872'
p9083
aa(lp9084
S'G7873'
p9085
aa(lp9086
S'EG11433'
p9087
aa(lp9088
S'G7874'
p9089
aa(lp9090
S'G7876'
p9091
aa(lp9092
S'EG11250'
p9093
aS'EG12096'
p9094
aS'EG10755'
p9095
aa(lp9096
g9093
aa(lp9097
g9093
ag9094
aa(lp9098
g9094
aa(lp9099
g9095
aa(lp9100
S'EG12517'
p9101
aa(lp9102
g9101
aS'EG12518'
p9103
aa(lp9104
g9103
aS'EG12520'
p9105
aS'EG12439'
p9106
aa(lp9107
g9103
aa(lp9108
g9103
ag9105
aa(lp9109
S'EG10283'
p9110
aa(lp9111
S'EG12440'
p9112
aa(lp9113
S'EG11410'
p9114
aa(lp9115
S'EG10741'
p9116
aS'EG50008'
p9117
aa(lp9118
g9116
aa(lp9119
g9117
aS'G812'
p9120
aS'EG11417'
p9121
aa(lp9122
g9117
aa(lp9123
g9120
ag9121
aa(lp9124
g9121
aa(lp9125
S'EG11402'
p9126
aa(lp9127
g9126
aS'EG12127'
p9128
aa(lp9129
g9128
aa(lp9130
S'EG12202'
p9131
aa(lp9132
S'G0-10689'
p9133
aS'EG12525'
p9134
aa(lp9135
g9133
aa(lp9136
S'G7877'
p9137
aS'EG10811'
p9138
aS'EG10805'
p9139
aS'EG11279'
p9140
aa(lp9141
g9137
aa(lp9142
g9137
ag9138
ag9139
aa(lp9143
g9137
ag9138
aa(lp9144
g9138
ag9139
ag9140
aa(lp9145
g9138
aa(lp9146
g9139
ag9140
aa(lp9147
g9139
aa(lp9148
g9140
aa(lp9149
S'G7879'
p9150
aa(lp9151
g9150
aS'G7880'
p9152
aa(lp9153
g9152
aa(lp9154
S'G7882'
p9155
aa(lp9156
g9155
aS'G7883'
p9157
aa(lp9158
g9157
aa(lp9159
S'EG10069'
p9160
aa(lp9161
S'G7885'
p9162
aa(lp9163
S'G7886'
p9164
aa(lp9165
S'EG11067'
p9166
aa(lp9167
S'EG11413'
p9168
aS'EG10694'
p9169
aa(lp9170
g9168
aa(lp9171
g9169
aa(lp9172
S'G7888'
p9173
aS'G7889'
p9174
aa(lp9175
g9173
aa(lp9176
g9174
aa(lp9177
S'G7890'
p9178
aa(lp9179
S'G7891'
p9180
aa(lp9181
S'EG12539'
p9182
aa(lp9183
g9182
aS'G7892'
p9184
aa(lp9185
S'EG12152'
p9186
aa(lp9187
S'EG11436'
p9188
aa(lp9189
S'EG30053'
p9190
aS'EG12364'
p9191
aS'G7894'
p9192
aS'G7895'
p9193
aa(lp9194
g9190
aa(lp9195
g9191
aa(lp9196
g9191
ag9192
ag9193
aa(lp9197
g9192
ag9193
aa(lp9198
g9193
aa(lp9199
S'G7900'
p9200
aa(lp9201
S'EG12544'
p9202
aa(lp9203
g9202
aS'G7901'
p9204
aS'G0-10616'
p9205
aa(lp9206
g9202
ag9204
aa(lp9207
g9204
aa(lp9208
S'G7905'
p9209
aS'G0-10567'
p9210
aa(lp9211
g9210
aa(lp9212
S'G7907'
p9213
aS'EG10290'
p9214
aa(lp9215
g9214
aS'EG10289'
p9216
aa(lp9217
g9214
ag9216
aS'EG10288'
p9218
aS'EG10287'
p9219
aa(lp9220
g9214
aa(lp9221
g9214
ag9216
ag9218
aa(lp9222
g9216
aa(lp9223
g9216
ag9218
aa(lp9224
g9216
ag9218
ag9219
aa(lp9225
g9218
aa(lp9226
g9218
ag9219
aS'EG10286'
p9227
aa(lp9228
g9218
ag9219
aa(lp9229
g9219
aa(lp9230
g9219
ag9227
aa(lp9231
g9227
aS'EG10292'
p9232
aS'EG10291'
p9233
aa(lp9234
g9227
aa(lp9235
g9232
aa(lp9236
g9232
ag9233
aa(lp9237
g9233
aa(lp9238
S'G7908'
p9239
aa(lp9240
S'G7909'
p9241
aa(lp9242
S'EG12548'
p9243
aa(lp9244
S'G7910'
p9245
aS'G7911'
p9246
aS'G7912'
p9247
aa(lp9248
g9245
aa(lp9249
g9245
ag9246
aa(lp9250
g9246
ag9247
aa(lp9251
g9246
aa(lp9252
S'G0-10609'
p9253
aa(lp9254
S'EG12556'
p9255
aS'G0-10241'
p9256
aS'EG12557'
p9257
aa(lp9258
g9256
ag9257
aa(lp9259
S'G0-16671'
p9260
aa(lp9261
g9260
aS'G7916'
p9262
aS'G7917'
p9263
aS'G0-10473'
p9264
aa(lp9265
g9262
ag9263
ag9264
aa(lp9266
g9263
ag9264
aa(lp9267
g9264
aS'G0-16672'
p9268
aa(lp9269
g9264
aa(lp9270
g9268
aa(lp9271
S'G7920'
p9272
aS'G7921'
p9273
aa(lp9274
g9272
aa(lp9275
S'EG10309'
p9276
aa(lp9277
S'EG10312'
p9278
aS'EG10308'
p9279
aa(lp9280
g9279
aa(lp9281
g9279
aS'EG11974'
p9282
aS'EG10310'
p9283
aa(lp9284
g9279
ag9282
aa(lp9285
g9282
aa(lp9286
g9282
ag9283
aa(lp9287
S'EG10313'
p9288
aa(lp9289
S'EG12563'
p9290
aS'EG11066'
p9291
aa(lp9292
g9290
aa(lp9293
g9291
aa(lp9294
g9291
aS'EG20248'
p9295
aa(lp9296
S'EG20249'
p9297
aa(lp9298
S'G7922'
p9299
aa(lp9300
S'G7923'
p9301
aa(lp9302
S'G7924'
p9303
aS'G7925'
p9304
aa(lp9305
g9303
aa(lp9306
g9304
aS'G7926'
p9307
aS'G7927'
p9308
aa(lp9309
g9304
ag9307
aa(lp9310
g9304
aa(lp9311
g9307
ag9308
aa(lp9312
S'G7928'
p9313
aa(lp9314
S'G7929'
p9315
aa(lp9316
S'G7930'
p9317
aa(lp9318
g9317
aS'G7931'
p9319
aS'G7932'
p9320
aa(lp9321
g9319
ag9320
aa(lp9322
g9320
aa(lp9323
S'EG12576'
p9324
aa(lp9325
S'G7936'
p9326
aa(lp9327
S'G7938'
p9328
aa(lp9329
S'EG10575'
p9330
aS'EG10574'
p9331
aa(lp9332
g9330
aa(lp9333
g9331
aa(lp9334
S'EG10460'
p9335
aa(lp9336
g9335
aS'EG10458'
p9337
aa(lp9338
g9337
aa(lp9339
S'EG10459'
p9340
aa(lp9341
S'EG10612'
p9342
aa(lp9343
S'EG10021'
p9344
aS'G7941'
p9345
aa(lp9346
g9344
ag9345
aS'G7942'
p9347
aa(lp9348
g9344
aa(lp9349
g9345
ag9347
aa(lp9350
g9347
aa(lp9351
S'EG11034'
p9352
aa(lp9353
S'EG12587'
p9354
aS'G7944'
p9355
aa(lp9356
g9355
aa(lp9357
S'EG12591'
p9358
aa(lp9359
S'EG11214'
p9360
aa(lp9361
g9360
aS'EG10237'
p9362
aS'EG10244'
p9363
aa(lp9364
g9362
aa(lp9365
g9362
ag9363
aa(lp9366
g9363
aS'EG11215'
p9367
aS'G7946'
p9368
aa(lp9369
g9363
aa(lp9370
g9367
ag9368
aa(lp9371
g9368
aa(lp9372
S'G7947'
p9373
aa(lp9374
S'G7949'
p9375
aa(lp9376
S'G0-10474'
p9377
aS'EG30051'
p9378
aS'EG30047'
p9379
aa(lp9380
g9377
aa(lp9381
g9377
ag9378
aa(lp9382
S'EG30048'
p9383
aa(lp9384
S'G7950'
p9385
aa(lp9386
S'EG11414'
p9387
aa(lp9388
g9387
aS'EG10850'
p9389
aS'EG12115'
p9390
aa(lp9391
g9387
ag9389
ag9390
aS'EG12114'
p9392
aa(lp9393
g9387
ag9389
aa(lp9394
g9389
ag9390
ag9392
aa(lp9395
g9389
ag9390
aa(lp9396
g9390
aa(lp9397
g9392
aa(lp9398
S'EG11391'
p9399
aS'G0-10475'
p9400
aS'G7951'
p9401
aS'G7952'
p9402
aa(lp9403
g9399
ag9400
aa(lp9404
g9399
aa(lp9405
g9401
ag9402
aa(lp9406
g9401
aa(lp9407
g9402
aa(lp9408
S'G7953'
p9409
aS'EG12171'
p9410
aa(lp9411
g9409
aa(lp9412
g9410
aa(lp9413
S'EG10221'
p9414
aS'EG10219'
p9415
aS'EG10220'
p9416
aS'EG10222'
p9417
aa(lp9418
g9414
ag9415
ag9416
aa(lp9419
g9414
aa(lp9420
g9414
ag9415
aa(lp9421
g9415
ag9416
aa(lp9422
g9415
aa(lp9423
g9416
aa(lp9424
g9416
ag9417
aa(lp9425
g9417
aa(lp9426
S'EG12342'
p9427
aa(lp9428
S'EG11796'
p9429
aa(lp9430
g9429
aS'EG10951'
p9431
aa(lp9432
g9431
aa(lp9433
S'EG10945'
p9434
aa(lp9435
g9434
aS'EG11296'
p9436
aa(lp9437
g9434
ag9436
aS'EG11335'
p9438
aa(lp9439
g9436
aa(lp9440
g9436
ag9438
aa(lp9441
g9438
aa(lp9442
S'EG12343'
p9443
aa(lp9444
S'EG10950'
p9445
aS'EG11029'
p9446
aa(lp9447
g9445
aa(lp9448
g9446
aa(lp9449
g9446
aS'EG12600'
p9450
aa(lp9451
g9450
aa(lp9452
S'EG12164'
p9453
aa(lp9454
S'EG11366'
p9455
aa(lp9456
S'EG11217'
p9457
aS'EG11218'
p9458
aa(lp9459
g9457
aa(lp9460
g9458
aa(lp9461
S'EG10061'
p9462
aa(lp9463
g9462
aS'G7954'
p9464
aa(lp9465
g9464
aa(lp9466
S'EG12309'
p9467
aa.